

Microchip MPLAB XC8 Assembler V2.41 build 20230208172133 
                                                                                               Sun Apr 30 18:46:18 2023

Microchip MPLAB XC8 C Compiler v2.41 (Free license) build 20230208172133 Og1 
     1                           	processor	16F877A
     2                           	pagewidth 120
     3                           	opt	flic
     4                           	psect	strings,global,class=STRING,delta=2,noexec
     5                           	psect	cinit,global,class=CODE,merge=1,delta=2
     6                           	psect	bssCOMMON,global,class=COMMON,space=1,delta=1,noexec
     7                           	psect	bssBANK0,global,class=BANK0,space=1,delta=1,noexec
     8                           	psect	bssBANK1,global,class=BANK1,space=1,delta=1,noexec
     9                           	psect	clrtext,global,class=CODE,delta=2
    10                           	psect	cstackBANK1,global,class=BANK1,space=1,delta=1,noexec
    11                           	psect	cstackCOMMON,global,class=COMMON,space=1,delta=1,noexec
    12                           	psect	cstackBANK0,global,class=BANK0,space=1,delta=1,noexec
    13                           	psect	maintext,global,class=CODE,split=1,delta=2
    14                           	psect	text1,local,class=CODE,merge=1,delta=2
    15                           	psect	text2,local,class=CODE,merge=1,delta=2,group=1
    16                           	psect	text3,local,class=CODE,merge=1,delta=2,group=1
    17                           	psect	text4,local,class=CODE,merge=1,delta=2,group=1
    18                           	psect	text5,local,class=CODE,merge=1,delta=2,group=1
    19                           	psect	text6,local,class=CODE,merge=1,delta=2
    20                           	psect	text7,local,class=CODE,merge=1,delta=2
    21                           	psect	text8,local,class=CODE,merge=1,delta=2
    22                           	psect	text9,local,class=CODE,merge=1,delta=2
    23                           	psect	text10,local,class=CODE,merge=1,delta=2
    24                           	psect	text11,local,class=CODE,merge=1,delta=2,group=1
    25                           	psect	text12,local,class=CODE,merge=1,delta=2,group=1
    26                           	psect	text13,local,class=CODE,merge=1,delta=2
    27                           	psect	text14,local,class=CODE,merge=1,delta=2
    28                           	psect	text15,local,class=CODE,merge=1,delta=2,group=1
    29                           	psect	text16,local,class=CODE,merge=1,delta=2,group=1
    30                           	psect	text17,local,class=CODE,merge=1,delta=2,group=1
    31                           	psect	text18,local,class=CODE,merge=1,delta=2
    32                           	psect	text19,local,class=CODE,merge=1,delta=2
    33                           	psect	text20,local,class=CODE,merge=1,delta=2
    34                           	psect	text21,local,class=CODE,merge=1,delta=2
    35                           	psect	text22,local,class=CODE,merge=1,delta=2
    36                           	psect	text23,local,class=CODE,merge=1,delta=2
    37                           	psect	text24,local,class=CODE,merge=1,delta=2
    38                           	psect	text25,local,class=CODE,merge=1,delta=2
    39                           	psect	intentry,global,class=CODE,delta=2
    40                           	psect	idloc,global,abs,ovrld,class=IDLOC,space=5,delta=2,noexec
    41                           	psect	config,global,abs,ovrld,class=CONFIG,space=4,delta=2,noexec
    42                           	dabs	1,0x7E,2
    43     0000                     
    44                           ; Version 2.40
    45                           ; Generated 17/11/2021 GMT
    46                           ; 
    47                           ; Copyright © 2021, Microchip Technology Inc. and its subsidiaries ("Microchip")
    48                           ; All rights reserved.
    49                           ; 
    50                           ; This software is developed by Microchip Technology Inc. and its subsidiaries ("Microch
      +                          ip").
    51                           ; 
    52                           ; Redistribution and use in source and binary forms, with or without modification, are
    53                           ; permitted provided that the following conditions are met:
    54                           ; 
    55                           ;     1. Redistributions of source code must retain the above copyright notice, this lis
      +                          t of
    56                           ;        conditions and the following disclaimer.
    57                           ; 
    58                           ;     2. Redistributions in binary form must reproduce the above copyright notice, this 
      +                          list
    59                           ;        of conditions and the following disclaimer in the documentation and/or other
    60                           ;        materials provided with the distribution. Publication is not required when
    61                           ;        this file is used in an embedded application.
    62                           ; 
    63                           ;     3. Microchip's name may not be used to endorse or promote products derived from th
      +                          is
    64                           ;        software without specific prior written permission.
    65                           ; 
    66                           ; THIS SOFTWARE IS PROVIDED BY MICROCHIP "AS IS" AND ANY EXPRESS OR IMPLIED WARRANTIES,
    67                           ; INCLUDING, BUT NOT LIMITED TO, THE IMPLIED WARRANTIES OF MERCHANTABILITY AND FITNESS F
      +                          OR
    68                           ; PURPOSE ARE DISCLAIMED.  IN NO EVENT SHALL MICROCHIP BE LIABLE FOR ANY DIRECT, INDIREC
      +                          T,
    69                           ; INCIDENTAL, SPECIAL, EXEMPLARY, OR CONSEQUENTIAL DAMAGES (INCLUDING BUT NOT LIMITED TO
    70                           ; PROCUREMENT OF SUBSTITUTE GOODS OR SERVICES; LOSS OF USE, DATA OR PROFITS; OR BUSINESS
    71                           ; INTERRUPTION) HOWSOEVER CAUSED AND ON ANY THEORY OF LIABILITY, WHETHER IN CONTRACT, ST
      +                          RICT
    72                           ; LIABILITY, OR TORT (INCLUDING NEGLIGENCE OR OTHERWISE) ARISING IN ANY WAY OUT OF THE U
      +                          SE OF
    73                           ; THIS SOFTWARE, EVEN IF ADVISED OF THE POSSIBILITY OF SUCH DAMAGE.
    74                           ; 
    75                           ; 
    76                           ; Code-generator required, PIC16F877A Definitions
    77                           ; 
    78                           ; SFR Addresses
    79     0000                     	;# 
    80     0001                     	;# 
    81     0002                     	;# 
    82     0003                     	;# 
    83     0004                     	;# 
    84     0005                     	;# 
    85     0006                     	;# 
    86     0007                     	;# 
    87     0008                     	;# 
    88     0009                     	;# 
    89     000A                     	;# 
    90     000B                     	;# 
    91     000C                     	;# 
    92     000D                     	;# 
    93     000E                     	;# 
    94     000E                     	;# 
    95     000F                     	;# 
    96     0010                     	;# 
    97     0011                     	;# 
    98     0012                     	;# 
    99     0013                     	;# 
   100     0014                     	;# 
   101     0015                     	;# 
   102     0015                     	;# 
   103     0016                     	;# 
   104     0017                     	;# 
   105     0018                     	;# 
   106     0019                     	;# 
   107     001A                     	;# 
   108     001B                     	;# 
   109     001B                     	;# 
   110     001C                     	;# 
   111     001D                     	;# 
   112     001E                     	;# 
   113     001F                     	;# 
   114     0081                     	;# 
   115     0085                     	;# 
   116     0086                     	;# 
   117     0087                     	;# 
   118     0088                     	;# 
   119     0089                     	;# 
   120     008C                     	;# 
   121     008D                     	;# 
   122     008E                     	;# 
   123     0091                     	;# 
   124     0092                     	;# 
   125     0093                     	;# 
   126     0094                     	;# 
   127     0098                     	;# 
   128     0099                     	;# 
   129     009C                     	;# 
   130     009D                     	;# 
   131     009E                     	;# 
   132     009F                     	;# 
   133     010C                     	;# 
   134     010D                     	;# 
   135     010E                     	;# 
   136     010F                     	;# 
   137     018C                     	;# 
   138     018D                     	;# 
   139     0000                     	;# 
   140     0001                     	;# 
   141     0002                     	;# 
   142     0003                     	;# 
   143     0004                     	;# 
   144     0005                     	;# 
   145     0006                     	;# 
   146     0007                     	;# 
   147     0008                     	;# 
   148     0009                     	;# 
   149     000A                     	;# 
   150     000B                     	;# 
   151     000C                     	;# 
   152     000D                     	;# 
   153     000E                     	;# 
   154     000E                     	;# 
   155     000F                     	;# 
   156     0010                     	;# 
   157     0011                     	;# 
   158     0012                     	;# 
   159     0013                     	;# 
   160     0014                     	;# 
   161     0015                     	;# 
   162     0015                     	;# 
   163     0016                     	;# 
   164     0017                     	;# 
   165     0018                     	;# 
   166     0019                     	;# 
   167     001A                     	;# 
   168     001B                     	;# 
   169     001B                     	;# 
   170     001C                     	;# 
   171     001D                     	;# 
   172     001E                     	;# 
   173     001F                     	;# 
   174     0081                     	;# 
   175     0085                     	;# 
   176     0086                     	;# 
   177     0087                     	;# 
   178     0088                     	;# 
   179     0089                     	;# 
   180     008C                     	;# 
   181     008D                     	;# 
   182     008E                     	;# 
   183     0091                     	;# 
   184     0092                     	;# 
   185     0093                     	;# 
   186     0094                     	;# 
   187     0098                     	;# 
   188     0099                     	;# 
   189     009C                     	;# 
   190     009D                     	;# 
   191     009E                     	;# 
   192     009F                     	;# 
   193     010C                     	;# 
   194     010D                     	;# 
   195     010E                     	;# 
   196     010F                     	;# 
   197     018C                     	;# 
   198     018D                     	;# 
   199     0009                     _PORTE	set	9
   200     0007                     _PORTC	set	7
   201     001F                     _ADCON0	set	31
   202     0006                     _PORTBbits	set	6
   203     0008                     _PORTD	set	8
   204     0007                     _PORTCbits	set	7
   205     000B                     _INTCONbits	set	11
   206     0009                     _PORTEbits	set	9
   207     001E                     _ADRESH	set	30
   208     000C                     _PIR1bits	set	12
   209     0089                     _TRISE	set	137
   210     009F                     _ADCON1	set	159
   211     0086                     _TRISB	set	134
   212     0087                     _TRISC	set	135
   213     008C                     _PIE1bits	set	140
   214     0087                     _TRISCbits	set	135
   215     0088                     _TRISD	set	136
   216     009E                     _ADRESL	set	158
   217     010C                     _EEDATA	set	268
   218     010D                     _EEADR	set	269
   219     018D                     _EECON2	set	397
   220     018C                     _EECON1bits	set	396
   221                           
   222                           	psect	strings
   223     07AF                     __pstrings:
   224     07AF                     stringtab:
   225     07AF                     __stringtab:
   226     07AF                     stringcode:	
   227                           ;	String table - string pointers are 1 byte each
   228                           
   229     07AF                     stringdir:
   230     07AF  3007               	movlw	high stringdir
   231     07B0  008A               	movwf	10
   232     07B1  0804               	movf	4,w
   233     07B2  0A84               	incf	4,f
   234     07B3  0782               	addwf	2,f
   235     07B4                     __stringbase:
   236     07B4  3400               	retlw	0
   237     07B5                     __end_of__stringtab:
   238     07B5                     STR_4:
   239     07B5  3441               	retlw	65	;'A'
   240     07B6  3443               	retlw	67	;'C'
   241     07B7  3454               	retlw	84	;'T'
   242     07B8  3455               	retlw	85	;'U'
   243     07B9  3441               	retlw	65	;'A'
   244     07BA  344C               	retlw	76	;'L'
   245     07BB  3420               	retlw	32	;' '
   246     07BC  3454               	retlw	84	;'T'
   247     07BD  3445               	retlw	69	;'E'
   248     07BE  344D               	retlw	77	;'M'
   249     07BF  3450               	retlw	80	;'P'
   250     07C0  343A               	retlw	58	;':'
   251     07C1  3420               	retlw	32	;' '
   252     07C2  3400               	retlw	0
   253     07C3                     STR_2:
   254     07C3  3441               	retlw	65	;'A'
   255     07C4  3443               	retlw	67	;'C'
   256     07C5  3454               	retlw	84	;'T'
   257     07C6  3455               	retlw	85	;'U'
   258     07C7  3441               	retlw	65	;'A'
   259     07C8  344C               	retlw	76	;'L'
   260     07C9  3420               	retlw	32	;' '
   261     07CA  3454               	retlw	84	;'T'
   262     07CB  3445               	retlw	69	;'E'
   263     07CC  344D               	retlw	77	;'M'
   264     07CD  3450               	retlw	80	;'P'
   265     07CE  343A               	retlw	58	;':'
   266     07CF  3400               	retlw	0
   267     07D0                     STR_7:
   268     07D0  3454               	retlw	84	;'T'
   269     07D1  3445               	retlw	69	;'E'
   270     07D2  344D               	retlw	77	;'M'
   271     07D3  3450               	retlw	80	;'P'
   272     07D4  3420               	retlw	32	;' '
   273     07D5  3452               	retlw	82	;'R'
   274     07D6  3445               	retlw	69	;'E'
   275     07D7  3446               	retlw	70	;'F'
   276     07D8  343A               	retlw	58	;':'
   277     07D9  3400               	retlw	0
   278     07DA                     STR_6:
   279     07DA  3420               	retlw	32	;' '
   280     07DB  3443               	retlw	67	;'C'
   281     07DC  3420               	retlw	32	;' '
   282     07DD  3420               	retlw	32	;' '
   283     07DE  3420               	retlw	32	;' '
   284     07DF  3420               	retlw	32	;' '
   285     07E0  3420               	retlw	32	;' '
   286     07E1  3420               	retlw	32	;' '
   287     07E2  3400               	retlw	0
   288     07E3                     STR_5:
   289     07E3  3420               	retlw	32	;' '
   290     07E4  3443               	retlw	67	;'C'
   291     07E5  3420               	retlw	32	;' '
   292     07E6  3400               	retlw	0
   293     07E7                     STR_1:
   294     07E7  3420               	retlw	32	;' '
   295     07E8  3443               	retlw	67	;'C'
   296     07E9  3400               	retlw	0
   297     07E7                     
   298                           	psect	cinit
   299     0011                     start_initialization:	
   300                           ; #config settings
   301                           
   302     0011                     __initialization:
   303                           
   304                           ; Clear objects allocated to COMMON
   305     0011  01F5               	clrf	__pbssCOMMON& (0+127)
   306     0012  01F6               	clrf	(__pbssCOMMON+1)& (0+127)
   307     0013  01F7               	clrf	(__pbssCOMMON+2)& (0+127)
   308     0014  01F8               	clrf	(__pbssCOMMON+3)& (0+127)
   309                           
   310                           ; Clear objects allocated to BANK0
   311     0015  1383               	bcf	3,7	;select IRP bank0
   312     0016  3059               	movlw	low __pbssBANK0
   313     0017  0084               	movwf	4
   314     0018  3070               	movlw	low (__pbssBANK0+23)
   315     0019  160A  118A  2363  120A  118A  	fcall	clear_ram0
   316                           
   317                           ; Clear objects allocated to BANK1
   318     001E  30A0               	movlw	low __pbssBANK1
   319     001F  0084               	movwf	4
   320     0020  30BA               	movlw	low (__pbssBANK1+26)
   321     0021  160A  118A  2363  120A  118A  	fcall	clear_ram0
   322     0026                     end_of_initialization:	
   323                           ;End of C runtime variable initialization code
   324                           
   325     0026                     __end_of__initialization:
   326     0026  0183               	clrf	3
   327     0027  160A  118A  2EC3   	ljmp	_main	;jump to C main() function
   328                           
   329                           	psect	bssCOMMON
   330     0075                     __pbssCOMMON:
   331     0075                     _temperature_mesure:
   332     0075                     	ds	4
   333                           
   334                           	psect	bssBANK0
   335     0059                     __pbssBANK0:
   336     0059                     _tab:
   337     0059                     	ds	6
   338     005F                     _temperature:
   339     005F                     	ds	4
   340     0063                     _adc:
   341     0063                     	ds	2
   342     0065                     _f:
   343     0065                     	ds	2
   344     0067                     _e:
   345     0067                     	ds	2
   346     0069                     _a:
   347     0069                     	ds	2
   348     006B                     _Address:
   349     006B                     	ds	2
   350     006D                     _heating:
   351     006D                     	ds	2
   352     006F                     _k:
   353     006F                     	ds	1
   354                           
   355                           	psect	bssBANK1
   356     00A0                     __pbssBANK1:
   357     00A0                     _temperature_reference:
   358     00A0                     	ds	4
   359     00A4                     _temperature_reff:
   360     00A4                     	ds	4
   361     00A8                     _adc1:
   362     00A8                     	ds	4
   363     00AC                     _p:
   364     00AC                     	ds	2
   365     00AE                     _M:
   366     00AE                     	ds	2
   367     00B0                     _R:
   368     00B0                     	ds	2
   369     00B2                     _addr:
   370     00B2                     	ds	2
   371     00B4                     _c:
   372     00B4                     	ds	2
   373     00B6                     _b:
   374     00B6                     	ds	2
   375     00B8                     _cooling:
   376     00B8                     	ds	2
   377                           
   378                           	psect	clrtext
   379     1363                     clear_ram0:	
   380                           ;	Called with FSR containing the base address, and
   381                           ;	W with the last address+1
   382                           
   383     1363  0064               	clrwdt	;clear the watchdog before getting into this loop
   384     1364                     clrloop0:
   385     1364  0180               	clrf	0	;clear RAM location pointed to by FSR
   386     1365  0A84               	incf	4,f	;increment pointer
   387     1366  0604               	xorwf	4,w	;XOR with final address
   388     1367  1903               	btfsc	3,2	;have we reached the end yet?
   389     1368  3400               	retlw	0	;all done for this memory range, return
   390     1369  0604               	xorwf	4,w	;XOR again to restore value
   391     136A  2B64               	goto	clrloop0	;do the next byte
   392                           
   393                           	psect	cstackBANK1
   394     00BA                     __pcstackBANK1:
   395     00BA                     _main$941:
   396                           
   397                           ; 4 bytes @ 0x0
   398     00BA                     	ds	4
   399                           
   400                           	psect	cstackCOMMON
   401     0070                     __pcstackCOMMON:
   402     0070                     ?_external:
   403     0070                     ??_external:	
   404                           ; 1 bytes @ 0x0
   405                           
   406     0070                     ?_buzzer:	
   407                           ; 1 bytes @ 0x0
   408                           
   409     0070                     ?_turnHeatingOn:	
   410                           ; 1 bytes @ 0x0
   411                           
   412     0070                     ?_turnHeatingOff:	
   413                           ; 1 bytes @ 0x0
   414                           
   415     0070                     ?_turnCoolingOn:	
   416                           ; 1 bytes @ 0x0
   417                           
   418     0070                     ?_turnCoolingOff:	
   419                           ; 1 bytes @ 0x0
   420                           
   421     0070                     ?_Lcd_Port:	
   422                           ; 1 bytes @ 0x0
   423                           
   424     0070                     ?_Lcd_Cmd:	
   425                           ; 1 bytes @ 0x0
   426                           
   427     0070                     ?_Init_LCD:	
   428                           ; 1 bytes @ 0x0
   429                           
   430     0070                     ?_Lcd_Write_Char:	
   431                           ; 1 bytes @ 0x0
   432                           
   433     0070                     ?_main:	
   434                           ; 1 bytes @ 0x0
   435                           
   436                           
   437                           ; 1 bytes @ 0x0
   438     0070                     	ds	5
   439     0075                     ??_turnHeatingOn:
   440     0075                     ??_turnHeatingOff:	
   441                           ; 1 bytes @ 0x5
   442                           
   443     0075                     ??_turnCoolingOn:	
   444                           ; 1 bytes @ 0x5
   445                           
   446     0075                     ??_turnCoolingOff:	
   447                           ; 1 bytes @ 0x5
   448                           
   449     0075                     ??_EEPROM_Write:	
   450                           ; 1 bytes @ 0x5
   451                           
   452     0075                     ??_EEPROM_Read:	
   453                           ; 1 bytes @ 0x5
   454                           
   455     0075                     ??_Lcd_Cmd:	
   456                           ; 1 bytes @ 0x5
   457                           
   458     0075                     ??_Lcd_Write_Char:	
   459                           ; 1 bytes @ 0x5
   460                           
   461     0075                     ??_Lcd_Write_String:	
   462                           ; 1 bytes @ 0x5
   463                           
   464     0075                     ??___wmul:	
   465                           ; 1 bytes @ 0x5
   466                           
   467     0075                     ??___awmod:	
   468                           ; 1 bytes @ 0x5
   469                           
   470                           
   471                           	psect	cstackBANK0
   472     0020                     __pcstackBANK0:	
   473                           ; 1 bytes @ 0x5
   474                           
   475     0020                     ??_buzzer:
   476     0020                     ?_EEPROM_Write:	
   477                           ; 1 bytes @ 0x0
   478                           
   479     0020                     ?_EEPROM_Read:	
   480                           ; 1 bytes @ 0x0
   481                           
   482     0020                     ??_Lcd_Port:	
   483                           ; 1 bytes @ 0x0
   484                           
   485     0020                     ?__Umul8_16:	
   486                           ; 1 bytes @ 0x0
   487                           
   488     0020                     ?___wmul:	
   489                           ; 2 bytes @ 0x0
   490                           
   491     0020                     ?___fladd:	
   492                           ; 2 bytes @ 0x0
   493                           
   494     0020                     ?___fldiv:	
   495                           ; 4 bytes @ 0x0
   496                           
   497     0020                     __Umul8_16@multiplicand:	
   498                           ; 4 bytes @ 0x0
   499                           
   500     0020                     EEPROM_Write@Address:	
   501                           ; 1 bytes @ 0x0
   502                           
   503     0020                     EEPROM_Read@Address:	
   504                           ; 2 bytes @ 0x0
   505                           
   506     0020                     ___wmul@multiplier:	
   507                           ; 2 bytes @ 0x0
   508                           
   509     0020                     ___fladd@b:	
   510                           ; 2 bytes @ 0x0
   511                           
   512     0020                     ___fldiv@a:	
   513                           ; 4 bytes @ 0x0
   514                           
   515                           
   516                           ; 4 bytes @ 0x0
   517     0020                     	ds	1
   518     0021                     Lcd_Cmd@Cmd:
   519     0021                     Lcd_Write_Char@Data:	
   520                           ; 1 bytes @ 0x1
   521                           
   522                           
   523                           ; 1 bytes @ 0x1
   524     0021                     	ds	1
   525     0022                     ??__Umul8_16:
   526     0022                     ??_Init_LCD:	
   527                           ; 1 bytes @ 0x2
   528                           
   529     0022                     ?_Lcd_Write_String:	
   530                           ; 1 bytes @ 0x2
   531                           
   532     0022                     EEPROM_Write@Data:	
   533                           ; 1 bytes @ 0x2
   534                           
   535     0022                     EEPROM_Read@Data:	
   536                           ; 1 bytes @ 0x2
   537                           
   538     0022                     Lcd_Write_String@num:	
   539                           ; 1 bytes @ 0x2
   540                           
   541     0022                     buzzer@p:	
   542                           ; 1 bytes @ 0x2
   543                           
   544     0022                     ___wmul@multiplicand:	
   545                           ; 2 bytes @ 0x2
   546                           
   547                           
   548                           ; 2 bytes @ 0x2
   549     0022                     	ds	1
   550     0023                     Lcd_Write_String@i:
   551                           
   552                           ; 1 bytes @ 0x3
   553     0023                     	ds	1
   554     0024                     Lcd_Write_String@str:
   555     0024                     ___wmul@product:	
   556                           ; 1 bytes @ 0x4
   557                           
   558     0024                     __Umul8_16@product:	
   559                           ; 2 bytes @ 0x4
   560                           
   561     0024                     ___fladd@a:	
   562                           ; 2 bytes @ 0x4
   563                           
   564     0024                     ___fldiv@b:	
   565                           ; 4 bytes @ 0x4
   566                           
   567                           
   568                           ; 4 bytes @ 0x4
   569     0024                     	ds	2
   570     0026                     ?___xxtofl:
   571     0026                     __Umul8_16@word_mpld:	
   572                           ; 4 bytes @ 0x6
   573                           
   574     0026                     ___xxtofl@val:	
   575                           ; 2 bytes @ 0x6
   576                           
   577                           
   578                           ; 4 bytes @ 0x6
   579     0026                     	ds	2
   580     0028                     ??___fladd:
   581     0028                     ??___fldiv:	
   582                           ; 1 bytes @ 0x8
   583                           
   584     0028                     __Umul8_16@multiplier:	
   585                           ; 1 bytes @ 0x8
   586                           
   587                           
   588                           ; 1 bytes @ 0x8
   589     0028                     	ds	2
   590     002A                     ??___xxtofl:
   591                           
   592                           ; 1 bytes @ 0xA
   593     002A                     	ds	3
   594     002D                     ___fldiv@rem:
   595                           
   596                           ; 4 bytes @ 0xD
   597     002D                     	ds	1
   598     002E                     ___xxtofl@sign:
   599                           
   600                           ; 1 bytes @ 0xE
   601     002E                     	ds	1
   602     002F                     ___xxtofl@exp:
   603                           
   604                           ; 1 bytes @ 0xF
   605     002F                     	ds	1
   606     0030                     ___fladd@signs:
   607     0030                     ___xxtofl@arg:	
   608                           ; 1 bytes @ 0x10
   609                           
   610                           
   611                           ; 4 bytes @ 0x10
   612     0030                     	ds	1
   613     0031                     ___fladd@aexp:
   614     0031                     ___fldiv@sign:	
   615                           ; 1 bytes @ 0x11
   616                           
   617                           
   618                           ; 1 bytes @ 0x11
   619     0031                     	ds	1
   620     0032                     ___fladd@bexp:
   621     0032                     ___fldiv@new_exp:	
   622                           ; 1 bytes @ 0x12
   623                           
   624                           
   625                           ; 2 bytes @ 0x12
   626     0032                     	ds	1
   627     0033                     ___fladd@grs:
   628                           
   629                           ; 1 bytes @ 0x13
   630     0033                     	ds	1
   631     0034                     ?___flge:
   632     0034                     ?___flmul:	
   633                           ; 1 bit 
   634                           
   635     0034                     ___flge@ff1:	
   636                           ; 4 bytes @ 0x14
   637                           
   638     0034                     ___fldiv@grs:	
   639                           ; 4 bytes @ 0x14
   640                           
   641     0034                     ___flmul@b:	
   642                           ; 4 bytes @ 0x14
   643                           
   644                           
   645                           ; 4 bytes @ 0x14
   646     0034                     	ds	4
   647     0038                     ___fldiv@bexp:
   648     0038                     ___flge@ff2:	
   649                           ; 1 bytes @ 0x18
   650                           
   651     0038                     ___flmul@a:	
   652                           ; 4 bytes @ 0x18
   653                           
   654                           
   655                           ; 4 bytes @ 0x18
   656     0038                     	ds	1
   657     0039                     ___fldiv@aexp:
   658                           
   659                           ; 1 bytes @ 0x19
   660     0039                     	ds	1
   661     003A                     ?___fltol:
   662     003A                     ___fltol@f1:	
   663                           ; 4 bytes @ 0x1A
   664                           
   665                           
   666                           ; 4 bytes @ 0x1A
   667     003A                     	ds	2
   668     003C                     ??___flge:
   669     003C                     ??___flmul:	
   670                           ; 1 bytes @ 0x1C
   671                           
   672                           
   673                           ; 1 bytes @ 0x1C
   674     003C                     	ds	2
   675     003E                     ??___fltol:
   676                           
   677                           ; 1 bytes @ 0x1E
   678     003E                     	ds	2
   679     0040                     ?_hysterisis:
   680     0040                     hysterisis@R:	
   681                           ; 1 bytes @ 0x20
   682                           
   683                           
   684                           ; 4 bytes @ 0x20
   685     0040                     	ds	1
   686     0041                     ___flmul@sign:
   687                           
   688                           ; 1 bytes @ 0x21
   689     0041                     	ds	1
   690     0042                     ___fltol@sign1:
   691     0042                     ___flmul@aexp:	
   692                           ; 1 bytes @ 0x22
   693                           
   694                           
   695                           ; 1 bytes @ 0x22
   696     0042                     	ds	1
   697     0043                     ___fltol@exp1:
   698     0043                     ___flmul@grs:	
   699                           ; 1 bytes @ 0x23
   700                           
   701                           
   702                           ; 4 bytes @ 0x23
   703     0043                     	ds	1
   704     0044                     ?_Lecture_temperature_ref:
   705     0044                     ?___awmod:	
   706                           ; 2 bytes @ 0x24
   707                           
   708     0044                     ___awmod@divisor:	
   709                           ; 2 bytes @ 0x24
   710                           
   711     0044                     hysterisis@M:	
   712                           ; 2 bytes @ 0x24
   713                           
   714                           
   715                           ; 4 bytes @ 0x24
   716     0044                     	ds	2
   717     0046                     ??_Lecture_temperature_ref:
   718     0046                     ___awmod@dividend:	
   719                           ; 1 bytes @ 0x26
   720                           
   721                           
   722                           ; 2 bytes @ 0x26
   723     0046                     	ds	1
   724     0047                     ___flmul@bexp:
   725                           
   726                           ; 1 bytes @ 0x27
   727     0047                     	ds	1
   728     0048                     ??_hysterisis:
   729     0048                     ___awmod@counter:	
   730                           ; 1 bytes @ 0x28
   731                           
   732     0048                     ___flmul@prod:	
   733                           ; 1 bytes @ 0x28
   734                           
   735                           
   736                           ; 4 bytes @ 0x28
   737     0048                     	ds	1
   738     0049                     ___awmod@sign:
   739                           
   740                           ; 1 bytes @ 0x29
   741     0049                     	ds	3
   742     004C                     ___flmul@temp:
   743                           
   744                           ; 2 bytes @ 0x2C
   745     004C                     	ds	2
   746     004E                     ?_lecture_temperature_mes:
   747                           
   748                           ; 4 bytes @ 0x2E
   749     004E                     	ds	4
   750     0052                     ??_lecture_temperature_mes:
   751                           
   752                           ; 1 bytes @ 0x32
   753     0052                     	ds	3
   754     0055                     ??_main:
   755                           
   756                           ; 1 bytes @ 0x35
   757     0055                     	ds	4
   758                           
   759                           	psect	maintext
   760     16C3                     __pmaintext:	
   761 ;;
   762 ;;Main: autosize = 0, tempsize = 4, incstack = 0, save=0
   763 ;;
   764 ;; *************** function _main *****************
   765 ;; Defined at:
   766 ;;		line 381 in file "cont.c"
   767 ;; Parameters:    Size  Location     Type
   768 ;;		None
   769 ;; Auto vars:     Size  Location     Type
   770 ;;		None
   771 ;; Return value:  Size  Location     Type
   772 ;;                  1    wreg      void 
   773 ;; Registers used:
   774 ;;		wreg, fsr0l, fsr0h, status,2, status,0, btemp+1, pclath, cstack
   775 ;; Tracked objects:
   776 ;;		On entry : B00/0
   777 ;;		On exit  : 0/0
   778 ;;		Unchanged: 0/0
   779 ;; Data sizes:     COMMON   BANK0   BANK1   BANK3   BANK2
   780 ;;      Params:         0       0       0       0       0
   781 ;;      Locals:         0       0       4       0       0
   782 ;;      Temps:          0       4       0       0       0
   783 ;;      Totals:         0       4       4       0       0
   784 ;;Total ram usage:        8 bytes
   785 ;; Hardware stack levels required when called: 5
   786 ;; This function calls:
   787 ;;		_Init_LCD
   788 ;;		_Lcd_Cmd
   789 ;;		_Lcd_Write_String
   790 ;;		_Lecture_temperature_ref
   791 ;;		___fltol
   792 ;;		___xxtofl
   793 ;;		_buzzer
   794 ;;		_hysterisis
   795 ;;		_lecture_temperature_mes
   796 ;; This function is called by:
   797 ;;		Startup code after reset
   798 ;; This function uses a non-reentrant model
   799 ;;
   800                           
   801     16C3                     _main:	
   802                           ;psect for function _main
   803                           
   804     16C3                     l4082:	
   805                           ;incstack = 0
   806                           ; Regs used in _main: [wreg-fsr0h+status,2+status,0+btemp+1+pclath+cstack]
   807                           
   808                           
   809                           ;cont.c: 382:     INTCONbits.GIE=1;
   810     16C3  178B               	bsf	11,7	;volatile
   811                           
   812                           ;cont.c: 383:     INTCONbits.PEIE=1;
   813     16C4  170B               	bsf	11,6	;volatile
   814                           
   815                           ;cont.c: 384:     PIE1bits.ADIE = 1;
   816     16C5  1683               	bsf	3,5	;RP0=1, select bank1
   817     16C6  1303               	bcf	3,6	;RP1=0, select bank1
   818     16C7  170C               	bsf	12,6	;volatile
   819     16C8                     l4084:
   820                           
   821                           ;cont.c: 385:     TRISD = 0;
   822     16C8  0188               	clrf	8	;volatile
   823                           
   824                           ;cont.c: 386:     PORTD = 0;
   825     16C9  1283               	bcf	3,5	;RP0=0, select bank0
   826     16CA  1303               	bcf	3,6	;RP1=0, select bank0
   827     16CB  0188               	clrf	8	;volatile
   828                           
   829                           ;cont.c: 387:     TRISC = 0;
   830     16CC  1683               	bsf	3,5	;RP0=1, select bank1
   831     16CD  1303               	bcf	3,6	;RP1=0, select bank1
   832     16CE  0187               	clrf	7	;volatile
   833                           
   834                           ;cont.c: 388:     PORTC = 0;
   835     16CF  1283               	bcf	3,5	;RP0=0, select bank0
   836     16D0  1303               	bcf	3,6	;RP1=0, select bank0
   837     16D1  0187               	clrf	7	;volatile
   838     16D2                     l4086:
   839                           
   840                           ;cont.c: 389:     TRISB = 0xF0;
   841     16D2  30F0               	movlw	240
   842     16D3  1683               	bsf	3,5	;RP0=1, select bank1
   843     16D4  1303               	bcf	3,6	;RP1=0, select bank1
   844     16D5  0086               	movwf	6	;volatile
   845     16D6                     l4088:
   846                           
   847                           ;cont.c: 390:     ADCON0 = 0x41;
   848     16D6  3041               	movlw	65
   849     16D7  1283               	bcf	3,5	;RP0=0, select bank0
   850     16D8  1303               	bcf	3,6	;RP1=0, select bank0
   851     16D9  009F               	movwf	31	;volatile
   852     16DA                     l4090:
   853                           
   854                           ;cont.c: 391:     ADCON1 = 0x8E;
   855     16DA  308E               	movlw	142
   856     16DB  1683               	bsf	3,5	;RP0=1, select bank1
   857     16DC  1303               	bcf	3,6	;RP1=0, select bank1
   858     16DD  009F               	movwf	31	;volatile
   859     16DE                     l4092:
   860                           
   861                           ;cont.c: 392:     TRISE = 0;
   862     16DE  0189               	clrf	9	;volatile
   863     16DF                     l4094:
   864                           
   865                           ;cont.c: 393:     PORTE =0;
   866     16DF  1283               	bcf	3,5	;RP0=0, select bank0
   867     16E0  1303               	bcf	3,6	;RP1=0, select bank0
   868     16E1  0189               	clrf	9	;volatile
   869     16E2                     l4096:
   870                           
   871                           ;cont.c: 394:     Init_LCD();
   872     16E2  160A  118A  23CD  160A  118A  	fcall	_Init_LCD
   873     16E7                     l4098:
   874                           
   875                           ;cont.c: 395:     Lcd_Write_String("TEMP REF:",10);
   876     16E7  300A               	movlw	10
   877     16E8  1283               	bcf	3,5	;RP0=0, select bank0
   878     16E9  1303               	bcf	3,6	;RP1=0, select bank0
   879     16EA  00A2               	movwf	Lcd_Write_String@num
   880     16EB  301C               	movlw	(low ((STR_7-__stringbase)| (0+32768)))& (0+255)
   881     16EC  160A  118A  238E  160A  118A  	fcall	_Lcd_Write_String
   882     16F1                     l4100:
   883                           
   884                           ;cont.c: 396:     temperature_reference=Lecture_temperature_ref();
   885     16F1  120A  118A  202A  160A  118A  	fcall	_Lecture_temperature_ref
   886     16F6  1283               	bcf	3,5	;RP0=0, select bank0
   887     16F7  1303               	bcf	3,6	;RP1=0, select bank0
   888     16F8  0844               	movf	?_Lecture_temperature_ref,w
   889     16F9  1683               	bsf	3,5	;RP0=1, select bank1
   890     16FA  1303               	bcf	3,6	;RP1=0, select bank1
   891     16FB  00BA               	movwf	_main$941^(0+128)
   892     16FC  1283               	bcf	3,5	;RP0=0, select bank0
   893     16FD  1303               	bcf	3,6	;RP1=0, select bank0
   894     16FE  0845               	movf	?_Lecture_temperature_ref+1,w
   895     16FF  1683               	bsf	3,5	;RP0=1, select bank1
   896     1700  1303               	bcf	3,6	;RP1=0, select bank1
   897     1701  00BB               	movwf	(_main$941+1)^(0+128)
   898     1702  3000               	movlw	0
   899     1703  1BBB               	btfsc	(_main$941+1)^(0+128),7
   900     1704  30FF               	movlw	255
   901     1705  00BC               	movwf	(_main$941+2)^(0+128)
   902     1706  00BD               	movwf	(_main$941+3)^(0+128)
   903     1707                     l4102:
   904                           
   905                           ;cont.c: 396:     temperature_reference=Lecture_temperature_ref();
   906     1707  083D               	movf	(_main$941+3)^(0+128),w
   907     1708  1283               	bcf	3,5	;RP0=0, select bank0
   908     1709  1303               	bcf	3,6	;RP1=0, select bank0
   909     170A  00A9               	movwf	___xxtofl@val+3
   910     170B  1683               	bsf	3,5	;RP0=1, select bank1
   911     170C  1303               	bcf	3,6	;RP1=0, select bank1
   912     170D  083C               	movf	(_main$941+2)^(0+128),w
   913     170E  1283               	bcf	3,5	;RP0=0, select bank0
   914     170F  1303               	bcf	3,6	;RP1=0, select bank0
   915     1710  00A8               	movwf	___xxtofl@val+2
   916     1711  1683               	bsf	3,5	;RP0=1, select bank1
   917     1712  1303               	bcf	3,6	;RP1=0, select bank1
   918     1713  083B               	movf	(_main$941+1)^(0+128),w
   919     1714  1283               	bcf	3,5	;RP0=0, select bank0
   920     1715  1303               	bcf	3,6	;RP1=0, select bank0
   921     1716  00A7               	movwf	___xxtofl@val+1
   922     1717  1683               	bsf	3,5	;RP0=1, select bank1
   923     1718  1303               	bcf	3,6	;RP1=0, select bank1
   924     1719  083A               	movf	_main$941^(0+128),w
   925     171A  1283               	bcf	3,5	;RP0=0, select bank0
   926     171B  1303               	bcf	3,6	;RP1=0, select bank0
   927     171C  00A6               	movwf	___xxtofl@val
   928     171D  3001               	movlw	1
   929     171E  120A  158A  2012  160A  118A  	fcall	___xxtofl
   930     1723  1283               	bcf	3,5	;RP0=0, select bank0
   931     1724  1303               	bcf	3,6	;RP1=0, select bank0
   932     1725  0829               	movf	?___xxtofl+3,w
   933     1726  1683               	bsf	3,5	;RP0=1, select bank1
   934     1727  1303               	bcf	3,6	;RP1=0, select bank1
   935     1728  00A3               	movwf	(_temperature_reference+3)^(0+128)
   936     1729  1283               	bcf	3,5	;RP0=0, select bank0
   937     172A  1303               	bcf	3,6	;RP1=0, select bank0
   938     172B  0828               	movf	?___xxtofl+2,w
   939     172C  1683               	bsf	3,5	;RP0=1, select bank1
   940     172D  1303               	bcf	3,6	;RP1=0, select bank1
   941     172E  00A2               	movwf	(_temperature_reference+2)^(0+128)
   942     172F  1283               	bcf	3,5	;RP0=0, select bank0
   943     1730  1303               	bcf	3,6	;RP1=0, select bank0
   944     1731  0827               	movf	?___xxtofl+1,w
   945     1732  1683               	bsf	3,5	;RP0=1, select bank1
   946     1733  1303               	bcf	3,6	;RP1=0, select bank1
   947     1734  00A1               	movwf	(_temperature_reference+1)^(0+128)
   948     1735  1283               	bcf	3,5	;RP0=0, select bank0
   949     1736  1303               	bcf	3,6	;RP1=0, select bank0
   950     1737  0826               	movf	?___xxtofl,w
   951     1738  1683               	bsf	3,5	;RP0=1, select bank1
   952     1739  1303               	bcf	3,6	;RP1=0, select bank1
   953     173A  00A0               	movwf	_temperature_reference^(0+128)
   954     173B                     l4104:
   955                           
   956                           ;cont.c: 397:     Lcd_Cmd(0x0c);
   957     173B  300C               	movlw	12
   958     173C  160A  118A  236B  160A  118A  	fcall	_Lcd_Cmd
   959     1741                     l4106:
   960                           
   961                           ;cont.c: 399:     {;cont.c: 401:         temperature_mesure=lecture_temperature_mes();
   962     1741  120A  158A  20CC  160A  118A  	fcall	_lecture_temperature_mes
   963     1746  1283               	bcf	3,5	;RP0=0, select bank0
   964     1747  1303               	bcf	3,6	;RP1=0, select bank0
   965     1748  0851               	movf	?_lecture_temperature_mes+3,w
   966     1749  00F8               	movwf	_temperature_mesure+3
   967     174A  0850               	movf	?_lecture_temperature_mes+2,w
   968     174B  00F7               	movwf	_temperature_mesure+2
   969     174C  084F               	movf	?_lecture_temperature_mes+1,w
   970     174D  00F6               	movwf	_temperature_mesure+1
   971     174E  084E               	movf	?_lecture_temperature_mes,w
   972     174F  00F5               	movwf	_temperature_mesure
   973     1750                     l4108:
   974                           
   975                           ;cont.c: 402:         if((int)temperature_mesure == (int)temperature_reference)
   976     1750  0878               	movf	_temperature_mesure+3,w
   977     1751  00BD               	movwf	___fltol@f1+3
   978     1752  0877               	movf	_temperature_mesure+2,w
   979     1753  00BC               	movwf	___fltol@f1+2
   980     1754  0876               	movf	_temperature_mesure+1,w
   981     1755  00BB               	movwf	___fltol@f1+1
   982     1756  0875               	movf	_temperature_mesure,w
   983     1757  00BA               	movwf	___fltol@f1
   984     1758  160A  118A  24F9  160A  118A  	fcall	___fltol
   985     175D  1283               	bcf	3,5	;RP0=0, select bank0
   986     175E  1303               	bcf	3,6	;RP1=0, select bank0
   987     175F  083A               	movf	?___fltol,w
   988     1760  00D5               	movwf	??_main
   989     1761  083B               	movf	?___fltol+1,w
   990     1762  00D6               	movwf	??_main+1
   991     1763  083C               	movf	?___fltol+2,w
   992     1764  00D7               	movwf	??_main+2
   993     1765  083D               	movf	?___fltol+3,w
   994     1766  00D8               	movwf	??_main+3
   995     1767  1683               	bsf	3,5	;RP0=1, select bank1
   996     1768  1303               	bcf	3,6	;RP1=0, select bank1
   997     1769  0823               	movf	(_temperature_reference+3)^(0+128),w
   998     176A  1283               	bcf	3,5	;RP0=0, select bank0
   999     176B  1303               	bcf	3,6	;RP1=0, select bank0
  1000     176C  00BD               	movwf	___fltol@f1+3
  1001     176D  1683               	bsf	3,5	;RP0=1, select bank1
  1002     176E  1303               	bcf	3,6	;RP1=0, select bank1
  1003     176F  0822               	movf	(_temperature_reference+2)^(0+128),w
  1004     1770  1283               	bcf	3,5	;RP0=0, select bank0
  1005     1771  1303               	bcf	3,6	;RP1=0, select bank0
  1006     1772  00BC               	movwf	___fltol@f1+2
  1007     1773  1683               	bsf	3,5	;RP0=1, select bank1
  1008     1774  1303               	bcf	3,6	;RP1=0, select bank1
  1009     1775  0821               	movf	(_temperature_reference+1)^(0+128),w
  1010     1776  1283               	bcf	3,5	;RP0=0, select bank0
  1011     1777  1303               	bcf	3,6	;RP1=0, select bank0
  1012     1778  00BB               	movwf	___fltol@f1+1
  1013     1779  1683               	bsf	3,5	;RP0=1, select bank1
  1014     177A  1303               	bcf	3,6	;RP1=0, select bank1
  1015     177B  0820               	movf	_temperature_reference^(0+128),w
  1016     177C  1283               	bcf	3,5	;RP0=0, select bank0
  1017     177D  1303               	bcf	3,6	;RP1=0, select bank0
  1018     177E  00BA               	movwf	___fltol@f1
  1019     177F  160A  118A  24F9  160A  118A  	fcall	___fltol
  1020     1784  1283               	bcf	3,5	;RP0=0, select bank0
  1021     1785  1303               	bcf	3,6	;RP1=0, select bank0
  1022     1786  083B               	movf	?___fltol+1,w
  1023     1787  0656               	xorwf	??_main+1,w
  1024     1788  1D03               	skipz
  1025     1789  2F8C               	goto	u5815
  1026     178A  083A               	movf	?___fltol,w
  1027     178B  0655               	xorwf	??_main,w
  1028     178C                     u5815:
  1029     178C  1D03               	skipz
  1030     178D  2F8F               	goto	u5811
  1031     178E  2F90               	goto	u5810
  1032     178F                     u5811:
  1033     178F  2FD3               	goto	l4118
  1034     1790                     u5810:
  1035     1790  2FC3               	goto	l4116
  1036     1791                     l4112:
  1037                           
  1038                           ;cont.c: 404:             buzzer();
  1039     1791  160A  118A  2468  160A  118A  	fcall	_buzzer
  1040                           
  1041                           ;cont.c: 405:             hysterisis(temperature_reference,temperature_mesure);
  1042     1796  1683               	bsf	3,5	;RP0=1, select bank1
  1043     1797  1303               	bcf	3,6	;RP1=0, select bank1
  1044     1798  0823               	movf	(_temperature_reference+3)^(0+128),w
  1045     1799  1283               	bcf	3,5	;RP0=0, select bank0
  1046     179A  1303               	bcf	3,6	;RP1=0, select bank0
  1047     179B  00C3               	movwf	hysterisis@R+3
  1048     179C  1683               	bsf	3,5	;RP0=1, select bank1
  1049     179D  1303               	bcf	3,6	;RP1=0, select bank1
  1050     179E  0822               	movf	(_temperature_reference+2)^(0+128),w
  1051     179F  1283               	bcf	3,5	;RP0=0, select bank0
  1052     17A0  1303               	bcf	3,6	;RP1=0, select bank0
  1053     17A1  00C2               	movwf	hysterisis@R+2
  1054     17A2  1683               	bsf	3,5	;RP0=1, select bank1
  1055     17A3  1303               	bcf	3,6	;RP1=0, select bank1
  1056     17A4  0821               	movf	(_temperature_reference+1)^(0+128),w
  1057     17A5  1283               	bcf	3,5	;RP0=0, select bank0
  1058     17A6  1303               	bcf	3,6	;RP1=0, select bank0
  1059     17A7  00C1               	movwf	hysterisis@R+1
  1060     17A8  1683               	bsf	3,5	;RP0=1, select bank1
  1061     17A9  1303               	bcf	3,6	;RP1=0, select bank1
  1062     17AA  0820               	movf	_temperature_reference^(0+128),w
  1063     17AB  1283               	bcf	3,5	;RP0=0, select bank0
  1064     17AC  1303               	bcf	3,6	;RP1=0, select bank0
  1065     17AD  00C0               	movwf	hysterisis@R
  1066     17AE  0878               	movf	_temperature_mesure+3,w
  1067     17AF  00C7               	movwf	hysterisis@M+3
  1068     17B0  0877               	movf	_temperature_mesure+2,w
  1069     17B1  00C6               	movwf	hysterisis@M+2
  1070     17B2  0876               	movf	_temperature_mesure+1,w
  1071     17B3  00C5               	movwf	hysterisis@M+1
  1072     17B4  0875               	movf	_temperature_mesure,w
  1073     17B5  00C4               	movwf	hysterisis@M
  1074     17B6  160A  118A  2615  160A  118A  	fcall	_hysterisis
  1075     17BB                     l4114:
  1076                           
  1077                           ;cont.c: 406:             p++;
  1078     17BB  3001               	movlw	1
  1079     17BC  1683               	bsf	3,5	;RP0=1, select bank1
  1080     17BD  1303               	bcf	3,6	;RP1=0, select bank1
  1081     17BE  07AC               	addwf	_p^(0+128),f
  1082     17BF  1803               	skipnc
  1083     17C0  0AAD               	incf	(_p+1)^(0+128),f
  1084     17C1  3000               	movlw	0
  1085     17C2  07AD               	addwf	(_p+1)^(0+128),f
  1086     17C3                     l4116:
  1087                           
  1088                           ;cont.c: 403:         {while(p<1){
  1089     17C3  1683               	bsf	3,5	;RP0=1, select bank1
  1090     17C4  1303               	bcf	3,6	;RP1=0, select bank1
  1091     17C5  082D               	movf	(_p+1)^(0+128),w
  1092     17C6  3A80               	xorlw	128
  1093     17C7  00FF               	movwf	btemp+1
  1094     17C8  3080               	movlw	128
  1095     17C9  027F               	subwf	btemp+1,w
  1096     17CA  1D03               	skipz
  1097     17CB  2FCE               	goto	u5825
  1098     17CC  3001               	movlw	1
  1099     17CD  022C               	subwf	_p^(0+128),w
  1100     17CE                     u5825:
  1101     17CE  1C03               	skipc
  1102     17CF  2FD1               	goto	u5821
  1103     17D0  2FD2               	goto	u5820
  1104     17D1                     u5821:
  1105     17D1  2F91               	goto	l4112
  1106     17D2                     u5820:
  1107     17D2  2F41               	goto	l4106
  1108     17D3                     l4118:
  1109                           
  1110                           ;cont.c: 410:         {;cont.c: 412:                hysterisis(temperature_reference,tem
      +                          perature_mesure);
  1111     17D3  1683               	bsf	3,5	;RP0=1, select bank1
  1112     17D4  1303               	bcf	3,6	;RP1=0, select bank1
  1113     17D5  0823               	movf	(_temperature_reference+3)^(0+128),w
  1114     17D6  1283               	bcf	3,5	;RP0=0, select bank0
  1115     17D7  1303               	bcf	3,6	;RP1=0, select bank0
  1116     17D8  00C3               	movwf	hysterisis@R+3
  1117     17D9  1683               	bsf	3,5	;RP0=1, select bank1
  1118     17DA  1303               	bcf	3,6	;RP1=0, select bank1
  1119     17DB  0822               	movf	(_temperature_reference+2)^(0+128),w
  1120     17DC  1283               	bcf	3,5	;RP0=0, select bank0
  1121     17DD  1303               	bcf	3,6	;RP1=0, select bank0
  1122     17DE  00C2               	movwf	hysterisis@R+2
  1123     17DF  1683               	bsf	3,5	;RP0=1, select bank1
  1124     17E0  1303               	bcf	3,6	;RP1=0, select bank1
  1125     17E1  0821               	movf	(_temperature_reference+1)^(0+128),w
  1126     17E2  1283               	bcf	3,5	;RP0=0, select bank0
  1127     17E3  1303               	bcf	3,6	;RP1=0, select bank0
  1128     17E4  00C1               	movwf	hysterisis@R+1
  1129     17E5  1683               	bsf	3,5	;RP0=1, select bank1
  1130     17E6  1303               	bcf	3,6	;RP1=0, select bank1
  1131     17E7  0820               	movf	_temperature_reference^(0+128),w
  1132     17E8  1283               	bcf	3,5	;RP0=0, select bank0
  1133     17E9  1303               	bcf	3,6	;RP1=0, select bank0
  1134     17EA  00C0               	movwf	hysterisis@R
  1135     17EB  0878               	movf	_temperature_mesure+3,w
  1136     17EC  00C7               	movwf	hysterisis@M+3
  1137     17ED  0877               	movf	_temperature_mesure+2,w
  1138     17EE  00C6               	movwf	hysterisis@M+2
  1139     17EF  0876               	movf	_temperature_mesure+1,w
  1140     17F0  00C5               	movwf	hysterisis@M+1
  1141     17F1  0875               	movf	_temperature_mesure,w
  1142     17F2  00C4               	movwf	hysterisis@M
  1143     17F3  160A  118A  2615  160A  118A  	fcall	_hysterisis
  1144     17F8                     l4120:
  1145                           
  1146                           ;cont.c: 413:                p=0;
  1147     17F8  1683               	bsf	3,5	;RP0=1, select bank1
  1148     17F9  1303               	bcf	3,6	;RP1=0, select bank1
  1149     17FA  01AC               	clrf	_p^(0+128)
  1150     17FB  01AD               	clrf	(_p+1)^(0+128)
  1151     17FC  2F41               	goto	l4106
  1152     17FD  120A  118A  280E   	ljmp	start
  1153     1800                     __end_of_main:
  1154                           
  1155                           	psect	text1
  1156     08CC                     __ptext1:	
  1157 ;; *************** function _lecture_temperature_mes *****************
  1158 ;; Defined at:
  1159 ;;		line 315 in file "cont.c"
  1160 ;; Parameters:    Size  Location     Type
  1161 ;;		None
  1162 ;; Auto vars:     Size  Location     Type
  1163 ;;		None
  1164 ;; Return value:  Size  Location     Type
  1165 ;;                  4   46[BANK0 ] float 
  1166 ;; Registers used:
  1167 ;;		wreg, fsr0l, fsr0h, status,2, status,0, btemp+1, pclath, cstack
  1168 ;; Tracked objects:
  1169 ;;		On entry : 0/0
  1170 ;;		On exit  : 0/0
  1171 ;;		Unchanged: 0/0
  1172 ;; Data sizes:     COMMON   BANK0   BANK1   BANK3   BANK2
  1173 ;;      Params:         0       4       0       0       0
  1174 ;;      Locals:         0       0       0       0       0
  1175 ;;      Temps:          0       3       0       0       0
  1176 ;;      Totals:         0       7       0       0       0
  1177 ;;Total ram usage:        7 bytes
  1178 ;; Hardware stack levels used: 1
  1179 ;; Hardware stack levels required when called: 4
  1180 ;; This function calls:
  1181 ;;		_Lcd_Cmd
  1182 ;;		_Lcd_Write_Char
  1183 ;;		_Lcd_Write_String
  1184 ;;		___awmod
  1185 ;;		___fldiv
  1186 ;;		___flmul
  1187 ;;		___fltol
  1188 ;;		___xxtofl
  1189 ;; This function is called by:
  1190 ;;		_main
  1191 ;; This function uses a non-reentrant model
  1192 ;;
  1193                           
  1194     08CC                     _lecture_temperature_mes:	
  1195                           ;psect for function _lecture_temperature_mes
  1196                           
  1197     08CC                     l4018:	
  1198                           ;incstack = 0
  1199                           ; Regs used in _lecture_temperature_mes: [wreg-fsr0h+status,2+status,0+btemp+1+pclath+cs
      +                          tack]
  1200                           
  1201                           
  1202                           ;cont.c: 316:      ADCON0 = ADCON0|(0x04);
  1203     08CC  1283               	bcf	3,5	;RP0=0, select bank0
  1204     08CD  1303               	bcf	3,6	;RP1=0, select bank0
  1205     08CE  081F               	movf	31,w	;volatile
  1206     08CF  3804               	iorlw	4
  1207     08D0  009F               	movwf	31	;volatile
  1208     08D1                     l4020:
  1209                           
  1210                           ;cont.c: 317:        adc1 =(float)( adc * (5.0 / 1023.0));
  1211     08D1  303B               	movlw	59
  1212     08D2  00B7               	movwf	___flmul@b+3
  1213     08D3  30A0               	movlw	160
  1214     08D4  00B6               	movwf	___flmul@b+2
  1215     08D5  3028               	movlw	40
  1216     08D6  00B5               	movwf	___flmul@b+1
  1217     08D7  300A               	movlw	10
  1218     08D8  00B4               	movwf	___flmul@b
  1219     08D9  0863               	movf	_adc,w
  1220     08DA  00A6               	movwf	___xxtofl@val
  1221     08DB  0864               	movf	_adc+1,w
  1222     08DC  00A7               	movwf	___xxtofl@val+1
  1223     08DD  3000               	movlw	0
  1224     08DE  1BA7               	btfsc	___xxtofl@val+1,7
  1225     08DF  30FF               	movlw	255
  1226     08E0  00A8               	movwf	___xxtofl@val+2
  1227     08E1  00A9               	movwf	___xxtofl@val+3
  1228     08E2  3001               	movlw	1
  1229     08E3  120A  158A  2012  120A  158A  	fcall	___xxtofl
  1230     08E8  1283               	bcf	3,5	;RP0=0, select bank0
  1231     08E9  1303               	bcf	3,6	;RP1=0, select bank0
  1232     08EA  0829               	movf	?___xxtofl+3,w
  1233     08EB  00BB               	movwf	___flmul@a+3
  1234     08EC  0828               	movf	?___xxtofl+2,w
  1235     08ED  00BA               	movwf	___flmul@a+2
  1236     08EE  0827               	movf	?___xxtofl+1,w
  1237     08EF  00B9               	movwf	___flmul@a+1
  1238     08F0  0826               	movf	?___xxtofl,w
  1239     08F1  00B8               	movwf	___flmul@a
  1240     08F2  120A  158A  24BB  120A  158A  	fcall	___flmul
  1241     08F7  1283               	bcf	3,5	;RP0=0, select bank0
  1242     08F8  1303               	bcf	3,6	;RP1=0, select bank0
  1243     08F9  0837               	movf	?___flmul+3,w
  1244     08FA  1683               	bsf	3,5	;RP0=1, select bank1
  1245     08FB  1303               	bcf	3,6	;RP1=0, select bank1
  1246     08FC  00AB               	movwf	(_adc1+3)^(0+128)
  1247     08FD  1283               	bcf	3,5	;RP0=0, select bank0
  1248     08FE  1303               	bcf	3,6	;RP1=0, select bank0
  1249     08FF  0836               	movf	?___flmul+2,w
  1250     0900  1683               	bsf	3,5	;RP0=1, select bank1
  1251     0901  1303               	bcf	3,6	;RP1=0, select bank1
  1252     0902  00AA               	movwf	(_adc1+2)^(0+128)
  1253     0903  1283               	bcf	3,5	;RP0=0, select bank0
  1254     0904  1303               	bcf	3,6	;RP1=0, select bank0
  1255     0905  0835               	movf	?___flmul+1,w
  1256     0906  1683               	bsf	3,5	;RP0=1, select bank1
  1257     0907  1303               	bcf	3,6	;RP1=0, select bank1
  1258     0908  00A9               	movwf	(_adc1+1)^(0+128)
  1259     0909  1283               	bcf	3,5	;RP0=0, select bank0
  1260     090A  1303               	bcf	3,6	;RP1=0, select bank0
  1261     090B  0834               	movf	?___flmul,w
  1262     090C  1683               	bsf	3,5	;RP0=1, select bank1
  1263     090D  1303               	bcf	3,6	;RP1=0, select bank1
  1264     090E  00A8               	movwf	_adc1^(0+128)
  1265     090F                     l4022:
  1266                           
  1267                           ;cont.c: 318:        temperature = adc1*100;
  1268     090F  3042               	movlw	66
  1269     0910  1283               	bcf	3,5	;RP0=0, select bank0
  1270     0911  1303               	bcf	3,6	;RP1=0, select bank0
  1271     0912  00B7               	movwf	___flmul@b+3
  1272     0913  30C8               	movlw	200
  1273     0914  00B6               	movwf	___flmul@b+2
  1274     0915  3000               	movlw	0
  1275     0916  00B5               	movwf	___flmul@b+1
  1276     0917  3000               	movlw	0
  1277     0918  00B4               	movwf	___flmul@b
  1278     0919  1683               	bsf	3,5	;RP0=1, select bank1
  1279     091A  1303               	bcf	3,6	;RP1=0, select bank1
  1280     091B  082B               	movf	(_adc1+3)^(0+128),w
  1281     091C  1283               	bcf	3,5	;RP0=0, select bank0
  1282     091D  1303               	bcf	3,6	;RP1=0, select bank0
  1283     091E  00BB               	movwf	___flmul@a+3
  1284     091F  1683               	bsf	3,5	;RP0=1, select bank1
  1285     0920  1303               	bcf	3,6	;RP1=0, select bank1
  1286     0921  082A               	movf	(_adc1+2)^(0+128),w
  1287     0922  1283               	bcf	3,5	;RP0=0, select bank0
  1288     0923  1303               	bcf	3,6	;RP1=0, select bank0
  1289     0924  00BA               	movwf	___flmul@a+2
  1290     0925  1683               	bsf	3,5	;RP0=1, select bank1
  1291     0926  1303               	bcf	3,6	;RP1=0, select bank1
  1292     0927  0829               	movf	(_adc1+1)^(0+128),w
  1293     0928  1283               	bcf	3,5	;RP0=0, select bank0
  1294     0929  1303               	bcf	3,6	;RP1=0, select bank0
  1295     092A  00B9               	movwf	___flmul@a+1
  1296     092B  1683               	bsf	3,5	;RP0=1, select bank1
  1297     092C  1303               	bcf	3,6	;RP1=0, select bank1
  1298     092D  0828               	movf	_adc1^(0+128),w
  1299     092E  1283               	bcf	3,5	;RP0=0, select bank0
  1300     092F  1303               	bcf	3,6	;RP1=0, select bank0
  1301     0930  00B8               	movwf	___flmul@a
  1302     0931  120A  158A  24BB  120A  158A  	fcall	___flmul
  1303     0936  1283               	bcf	3,5	;RP0=0, select bank0
  1304     0937  1303               	bcf	3,6	;RP1=0, select bank0
  1305     0938  0837               	movf	?___flmul+3,w
  1306     0939  00E2               	movwf	_temperature+3
  1307     093A  0836               	movf	?___flmul+2,w
  1308     093B  00E1               	movwf	_temperature+2
  1309     093C  0835               	movf	?___flmul+1,w
  1310     093D  00E0               	movwf	_temperature+1
  1311     093E  0834               	movf	?___flmul,w
  1312     093F  00DF               	movwf	_temperature
  1313     0940                     l4024:
  1314                           
  1315                           ;cont.c: 319:        Lcd_Cmd(0xC0);
  1316     0940  30C0               	movlw	192
  1317     0941  160A  118A  236B  120A  158A  	fcall	_Lcd_Cmd
  1318     0946                     l4026:
  1319                           
  1320                           ;cont.c: 320:        Lcd_Write_String("ACTUAL TEMP: ",12);
  1321     0946  300C               	movlw	12
  1322     0947  1283               	bcf	3,5	;RP0=0, select bank0
  1323     0948  1303               	bcf	3,6	;RP1=0, select bank0
  1324     0949  00A2               	movwf	Lcd_Write_String@num
  1325     094A  3001               	movlw	(low ((STR_4-__stringbase)| (0+32768)))& (0+255)
  1326     094B  160A  118A  238E  120A  158A  	fcall	_Lcd_Write_String
  1327     0950                     l4028:
  1328                           
  1329                           ;cont.c: 321:        a=temperature/100;
  1330     0950  1283               	bcf	3,5	;RP0=0, select bank0
  1331     0951  1303               	bcf	3,6	;RP1=0, select bank0
  1332     0952  0862               	movf	_temperature+3,w
  1333     0953  00A7               	movwf	___fldiv@b+3
  1334     0954  0861               	movf	_temperature+2,w
  1335     0955  00A6               	movwf	___fldiv@b+2
  1336     0956  0860               	movf	_temperature+1,w
  1337     0957  00A5               	movwf	___fldiv@b+1
  1338     0958  085F               	movf	_temperature,w
  1339     0959  00A4               	movwf	___fldiv@b
  1340     095A  3042               	movlw	66
  1341     095B  00A3               	movwf	___fldiv@a+3
  1342     095C  30C8               	movlw	200
  1343     095D  00A2               	movwf	___fldiv@a+2
  1344     095E  3000               	movlw	0
  1345     095F  00A1               	movwf	___fldiv@a+1
  1346     0960  3000               	movlw	0
  1347     0961  00A0               	movwf	___fldiv@a
  1348     0962  120A  118A  25E0  120A  158A  	fcall	___fldiv
  1349     0967  1283               	bcf	3,5	;RP0=0, select bank0
  1350     0968  1303               	bcf	3,6	;RP1=0, select bank0
  1351     0969  0823               	movf	?___fldiv+3,w
  1352     096A  00BD               	movwf	___fltol@f1+3
  1353     096B  0822               	movf	?___fldiv+2,w
  1354     096C  00BC               	movwf	___fltol@f1+2
  1355     096D  0821               	movf	?___fldiv+1,w
  1356     096E  00BB               	movwf	___fltol@f1+1
  1357     096F  0820               	movf	?___fldiv,w
  1358     0970  00BA               	movwf	___fltol@f1
  1359     0971  160A  118A  24F9  120A  158A  	fcall	___fltol
  1360     0976  1283               	bcf	3,5	;RP0=0, select bank0
  1361     0977  1303               	bcf	3,6	;RP1=0, select bank0
  1362     0978  083B               	movf	?___fltol+1,w
  1363     0979  00EA               	movwf	_a+1
  1364     097A  083A               	movf	?___fltol,w
  1365     097B  00E9               	movwf	_a
  1366     097C                     l4030:
  1367                           
  1368                           ;cont.c: 322:        e=(int)temperature%10;
  1369     097C  300A               	movlw	10
  1370     097D  00C4               	movwf	___awmod@divisor
  1371     097E  3000               	movlw	0
  1372     097F  00C5               	movwf	___awmod@divisor+1
  1373     0980  0862               	movf	_temperature+3,w
  1374     0981  00BD               	movwf	___fltol@f1+3
  1375     0982  0861               	movf	_temperature+2,w
  1376     0983  00BC               	movwf	___fltol@f1+2
  1377     0984  0860               	movf	_temperature+1,w
  1378     0985  00BB               	movwf	___fltol@f1+1
  1379     0986  085F               	movf	_temperature,w
  1380     0987  00BA               	movwf	___fltol@f1
  1381     0988  160A  118A  24F9  120A  158A  	fcall	___fltol
  1382     098D  1283               	bcf	3,5	;RP0=0, select bank0
  1383     098E  1303               	bcf	3,6	;RP1=0, select bank0
  1384     098F  083B               	movf	?___fltol+1,w
  1385     0990  00C7               	movwf	___awmod@dividend+1
  1386     0991  083A               	movf	?___fltol,w
  1387     0992  00C6               	movwf	___awmod@dividend
  1388     0993  160A  118A  249E  120A  158A  	fcall	___awmod
  1389     0998  1283               	bcf	3,5	;RP0=0, select bank0
  1390     0999  1303               	bcf	3,6	;RP1=0, select bank0
  1391     099A  0845               	movf	?___awmod+1,w
  1392     099B  00E8               	movwf	_e+1
  1393     099C  0844               	movf	?___awmod,w
  1394     099D  00E7               	movwf	_e
  1395     099E                     l4032:
  1396                           
  1397                           ;cont.c: 323:        b=temperature/10;
  1398     099E  0862               	movf	_temperature+3,w
  1399     099F  00A7               	movwf	___fldiv@b+3
  1400     09A0  0861               	movf	_temperature+2,w
  1401     09A1  00A6               	movwf	___fldiv@b+2
  1402     09A2  0860               	movf	_temperature+1,w
  1403     09A3  00A5               	movwf	___fldiv@b+1
  1404     09A4  085F               	movf	_temperature,w
  1405     09A5  00A4               	movwf	___fldiv@b
  1406     09A6  3041               	movlw	65
  1407     09A7  00A3               	movwf	___fldiv@a+3
  1408     09A8  3020               	movlw	32
  1409     09A9  00A2               	movwf	___fldiv@a+2
  1410     09AA  3000               	movlw	0
  1411     09AB  00A1               	movwf	___fldiv@a+1
  1412     09AC  3000               	movlw	0
  1413     09AD  00A0               	movwf	___fldiv@a
  1414     09AE  120A  118A  25E0  120A  158A  	fcall	___fldiv
  1415     09B3  1283               	bcf	3,5	;RP0=0, select bank0
  1416     09B4  1303               	bcf	3,6	;RP1=0, select bank0
  1417     09B5  0823               	movf	?___fldiv+3,w
  1418     09B6  00BD               	movwf	___fltol@f1+3
  1419     09B7  0822               	movf	?___fldiv+2,w
  1420     09B8  00BC               	movwf	___fltol@f1+2
  1421     09B9  0821               	movf	?___fldiv+1,w
  1422     09BA  00BB               	movwf	___fltol@f1+1
  1423     09BB  0820               	movf	?___fldiv,w
  1424     09BC  00BA               	movwf	___fltol@f1
  1425     09BD  160A  118A  24F9  120A  158A  	fcall	___fltol
  1426     09C2  1283               	bcf	3,5	;RP0=0, select bank0
  1427     09C3  1303               	bcf	3,6	;RP1=0, select bank0
  1428     09C4  083B               	movf	?___fltol+1,w
  1429     09C5  1683               	bsf	3,5	;RP0=1, select bank1
  1430     09C6  1303               	bcf	3,6	;RP1=0, select bank1
  1431     09C7  00B7               	movwf	(_b+1)^(0+128)
  1432     09C8  1283               	bcf	3,5	;RP0=0, select bank0
  1433     09C9  1303               	bcf	3,6	;RP1=0, select bank0
  1434     09CA  083A               	movf	?___fltol,w
  1435     09CB  1683               	bsf	3,5	;RP0=1, select bank1
  1436     09CC  1303               	bcf	3,6	;RP1=0, select bank1
  1437     09CD  00B6               	movwf	_b^(0+128)
  1438     09CE                     l4034:
  1439                           
  1440                           ;cont.c: 324:        f=b%10;
  1441     09CE  300A               	movlw	10
  1442     09CF  1283               	bcf	3,5	;RP0=0, select bank0
  1443     09D0  1303               	bcf	3,6	;RP1=0, select bank0
  1444     09D1  00C4               	movwf	___awmod@divisor
  1445     09D2  3000               	movlw	0
  1446     09D3  00C5               	movwf	___awmod@divisor+1
  1447     09D4  1683               	bsf	3,5	;RP0=1, select bank1
  1448     09D5  1303               	bcf	3,6	;RP1=0, select bank1
  1449     09D6  0837               	movf	(_b+1)^(0+128),w
  1450     09D7  1283               	bcf	3,5	;RP0=0, select bank0
  1451     09D8  1303               	bcf	3,6	;RP1=0, select bank0
  1452     09D9  00C7               	movwf	___awmod@dividend+1
  1453     09DA  1683               	bsf	3,5	;RP0=1, select bank1
  1454     09DB  1303               	bcf	3,6	;RP1=0, select bank1
  1455     09DC  0836               	movf	_b^(0+128),w
  1456     09DD  1283               	bcf	3,5	;RP0=0, select bank0
  1457     09DE  1303               	bcf	3,6	;RP1=0, select bank0
  1458     09DF  00C6               	movwf	___awmod@dividend
  1459     09E0  160A  118A  249E  120A  158A  	fcall	___awmod
  1460     09E5  1283               	bcf	3,5	;RP0=0, select bank0
  1461     09E6  1303               	bcf	3,6	;RP1=0, select bank0
  1462     09E7  0845               	movf	?___awmod+1,w
  1463     09E8  00E6               	movwf	_f+1
  1464     09E9  0844               	movf	?___awmod,w
  1465     09EA  00E5               	movwf	_f
  1466     09EB                     l4036:
  1467                           
  1468                           ;cont.c: 325:        c=a%10;
  1469     09EB  300A               	movlw	10
  1470     09EC  00C4               	movwf	___awmod@divisor
  1471     09ED  3000               	movlw	0
  1472     09EE  00C5               	movwf	___awmod@divisor+1
  1473     09EF  086A               	movf	_a+1,w
  1474     09F0  00C7               	movwf	___awmod@dividend+1
  1475     09F1  0869               	movf	_a,w
  1476     09F2  00C6               	movwf	___awmod@dividend
  1477     09F3  160A  118A  249E  120A  158A  	fcall	___awmod
  1478     09F8  1283               	bcf	3,5	;RP0=0, select bank0
  1479     09F9  1303               	bcf	3,6	;RP1=0, select bank0
  1480     09FA  0845               	movf	?___awmod+1,w
  1481     09FB  1683               	bsf	3,5	;RP0=1, select bank1
  1482     09FC  1303               	bcf	3,6	;RP1=0, select bank1
  1483     09FD  00B5               	movwf	(_c+1)^(0+128)
  1484     09FE  1283               	bcf	3,5	;RP0=0, select bank0
  1485     09FF  1303               	bcf	3,6	;RP1=0, select bank0
  1486     0A00  0844               	movf	?___awmod,w
  1487     0A01  1683               	bsf	3,5	;RP0=1, select bank1
  1488     0A02  1303               	bcf	3,6	;RP1=0, select bank1
  1489     0A03  00B4               	movwf	_c^(0+128)
  1490     0A04                     l4038:
  1491                           
  1492                           ;cont.c: 326:        if (a==1)
  1493     0A04  1283               	bcf	3,5	;RP0=0, select bank0
  1494     0A05  1303               	bcf	3,6	;RP1=0, select bank0
  1495     0A06  0369               	decf	_a,w
  1496     0A07  046A               	iorwf	_a+1,w
  1497     0A08  1D03               	btfss	3,2
  1498     0A09  2A0B               	goto	u5761
  1499     0A0A  2A0C               	goto	u5760
  1500     0A0B                     u5761:
  1501     0A0B  2A3D               	goto	l4046
  1502     0A0C                     u5760:
  1503     0A0C                     l4040:
  1504                           
  1505                           ;cont.c: 327:        {;cont.c: 328:         Lcd_Write_Char('1');
  1506     0A0C  3031               	movlw	49
  1507     0A0D  120A  158A  2006  120A  158A  	fcall	_Lcd_Write_Char
  1508                           
  1509                           ;cont.c: 329:         Lcd_Write_Char((char)f+0x30);
  1510     0A12  1283               	bcf	3,5	;RP0=0, select bank0
  1511     0A13  1303               	bcf	3,6	;RP1=0, select bank0
  1512     0A14  0865               	movf	_f,w
  1513     0A15  3E30               	addlw	48
  1514     0A16  120A  158A  2006  120A  158A  	fcall	_Lcd_Write_Char
  1515                           
  1516                           ;cont.c: 330:         Lcd_Write_Char((char)e+0x30);
  1517     0A1B  1283               	bcf	3,5	;RP0=0, select bank0
  1518     0A1C  1303               	bcf	3,6	;RP1=0, select bank0
  1519     0A1D  0867               	movf	_e,w
  1520     0A1E  3E30               	addlw	48
  1521     0A1F  120A  158A  2006  120A  158A  	fcall	_Lcd_Write_Char
  1522     0A24                     l4042:
  1523                           
  1524                           ;cont.c: 331:         Lcd_Write_String(" C ",3);
  1525     0A24  3003               	movlw	3
  1526     0A25  1283               	bcf	3,5	;RP0=0, select bank0
  1527     0A26  1303               	bcf	3,6	;RP1=0, select bank0
  1528     0A27  00A2               	movwf	Lcd_Write_String@num
  1529     0A28  302F               	movlw	(low ((STR_5-__stringbase)| (0+32768)))& (0+255)
  1530     0A29  160A  118A  238E  120A  158A  	fcall	_Lcd_Write_String
  1531     0A2E                     l4044:
  1532                           
  1533                           ;cont.c: 332:        _delay((unsigned long)((50)*(20000000/4000.0)));
  1534     0A2E  3002               	movlw	2
  1535     0A2F  1283               	bcf	3,5	;RP0=0, select bank0
  1536     0A30  1303               	bcf	3,6	;RP1=0, select bank0
  1537     0A31  00D4               	movwf	??_lecture_temperature_mes+2
  1538     0A32  3045               	movlw	69
  1539     0A33  00D3               	movwf	??_lecture_temperature_mes+1
  1540     0A34  30A9               	movlw	169
  1541     0A35  00D2               	movwf	??_lecture_temperature_mes
  1542     0A36                     u5837:
  1543     0A36  0BD2               	decfsz	??_lecture_temperature_mes,f
  1544     0A37  2A36               	goto	u5837
  1545     0A38  0BD3               	decfsz	??_lecture_temperature_mes+1,f
  1546     0A39  2A36               	goto	u5837
  1547     0A3A  0BD4               	decfsz	??_lecture_temperature_mes+2,f
  1548     0A3B  2A36               	goto	u5837
  1549                           
  1550                           ;cont.c: 333:        }
  1551     0A3C  2A58               	goto	l4052
  1552     0A3D                     l4046:
  1553                           
  1554                           ;cont.c: 335:        {;cont.c: 336:        Lcd_Write_Char((char)f+0x30);
  1555     0A3D  0865               	movf	_f,w
  1556     0A3E  3E30               	addlw	48
  1557     0A3F  120A  158A  2006  120A  158A  	fcall	_Lcd_Write_Char
  1558                           
  1559                           ;cont.c: 337:        Lcd_Write_Char((char)e+0x30);
  1560     0A44  1283               	bcf	3,5	;RP0=0, select bank0
  1561     0A45  1303               	bcf	3,6	;RP1=0, select bank0
  1562     0A46  0867               	movf	_e,w
  1563     0A47  3E30               	addlw	48
  1564     0A48  120A  158A  2006  120A  158A  	fcall	_Lcd_Write_Char
  1565     0A4D                     l4048:
  1566                           
  1567                           ;cont.c: 338:        Lcd_Write_String(" C      ",8);
  1568     0A4D  3008               	movlw	8
  1569     0A4E  1283               	bcf	3,5	;RP0=0, select bank0
  1570     0A4F  1303               	bcf	3,6	;RP1=0, select bank0
  1571     0A50  00A2               	movwf	Lcd_Write_String@num
  1572     0A51  3026               	movlw	(low ((STR_6-__stringbase)| (0+32768)))& (0+255)
  1573     0A52  160A  118A  238E  120A  158A  	fcall	_Lcd_Write_String
  1574     0A57  2A2E               	goto	l4044
  1575     0A58                     l4052:
  1576                           
  1577                           ;cont.c: 341: return temperature;
  1578     0A58  1283               	bcf	3,5	;RP0=0, select bank0
  1579     0A59  1303               	bcf	3,6	;RP1=0, select bank0
  1580     0A5A  0862               	movf	_temperature+3,w
  1581     0A5B  00D1               	movwf	?_lecture_temperature_mes+3
  1582     0A5C  0861               	movf	_temperature+2,w
  1583     0A5D  00D0               	movwf	?_lecture_temperature_mes+2
  1584     0A5E  0860               	movf	_temperature+1,w
  1585     0A5F  00CF               	movwf	?_lecture_temperature_mes+1
  1586     0A60  085F               	movf	_temperature,w
  1587     0A61  00CE               	movwf	?_lecture_temperature_mes
  1588     0A62                     l197:
  1589     0A62  0008               	return
  1590     0A63                     __end_of_lecture_temperature_mes:
  1591                           
  1592                           	psect	text2
  1593     0CBB                     __ptext2:	
  1594 ;; *************** function ___flmul *****************
  1595 ;; Defined at:
  1596 ;;		line 8 in file "C:\Program Files\Microchip\xc8\v2.41\pic\sources\c90\common\sprcmul.c"
  1597 ;; Parameters:    Size  Location     Type
  1598 ;;  b               4   20[BANK0 ] float 
  1599 ;;  a               4   24[BANK0 ] float 
  1600 ;; Auto vars:     Size  Location     Type
  1601 ;;  prod            4   40[BANK0 ] struct .
  1602 ;;  grs             4   35[BANK0 ] unsigned long 
  1603 ;;  temp            2   44[BANK0 ] struct .
  1604 ;;  bexp            1   39[BANK0 ] unsigned char 
  1605 ;;  aexp            1   34[BANK0 ] unsigned char 
  1606 ;;  sign            1   33[BANK0 ] unsigned char 
  1607 ;; Return value:  Size  Location     Type
  1608 ;;                  4   20[BANK0 ] unsigned char 
  1609 ;; Registers used:
  1610 ;;		wreg, status,2, status,0, btemp+1, pclath, cstack
  1611 ;; Tracked objects:
  1612 ;;		On entry : 0/0
  1613 ;;		On exit  : 0/0
  1614 ;;		Unchanged: 0/0
  1615 ;; Data sizes:     COMMON   BANK0   BANK1   BANK3   BANK2
  1616 ;;      Params:         0       8       0       0       0
  1617 ;;      Locals:         0      13       0       0       0
  1618 ;;      Temps:          0       5       0       0       0
  1619 ;;      Totals:         0      26       0       0       0
  1620 ;;Total ram usage:       26 bytes
  1621 ;; Hardware stack levels used: 1
  1622 ;; Hardware stack levels required when called: 2
  1623 ;; This function calls:
  1624 ;;		__Umul8_16
  1625 ;; This function is called by:
  1626 ;;		_lecture_temperature_mes
  1627 ;; This function uses a non-reentrant model
  1628 ;;
  1629                           
  1630     0CBB                     ___flmul:	
  1631                           ;psect for function ___flmul
  1632                           
  1633     0CBB                     l3574:	
  1634                           ;incstack = 0
  1635                           ; Regs used in ___flmul: [wreg+status,2+status,0+btemp+1+pclath+cstack]
  1636                           
  1637     0CBB  1283               	bcf	3,5	;RP0=0, select bank0
  1638     0CBC  1303               	bcf	3,6	;RP1=0, select bank0
  1639     0CBD  0837               	movf	___flmul@b+3,w
  1640     0CBE  3980               	andlw	128
  1641     0CBF  00C1               	movwf	___flmul@sign
  1642     0CC0                     l3576:
  1643     0CC0  0837               	movf	___flmul@b+3,w
  1644     0CC1  00BC               	movwf	??___flmul
  1645     0CC2  073C               	addwf	??___flmul,w
  1646     0CC3  00C7               	movwf	___flmul@bexp
  1647     0CC4                     l3578:
  1648     0CC4  1FB6               	btfss	___flmul@b+2,7
  1649     0CC5  2CC7               	goto	u5001
  1650     0CC6  2CC8               	goto	u5000
  1651     0CC7                     u5001:
  1652     0CC7  2CC9               	goto	l3582
  1653     0CC8                     u5000:
  1654     0CC8                     l3580:
  1655     0CC8  1447               	bsf	___flmul@bexp,0
  1656     0CC9                     l3582:
  1657     0CC9  0847               	movf	___flmul@bexp,w
  1658     0CCA  1903               	btfsc	3,2
  1659     0CCB  2CCD               	goto	u5011
  1660     0CCC  2CCE               	goto	u5010
  1661     0CCD                     u5011:
  1662     0CCD  2CDD               	goto	l3590
  1663     0CCE                     u5010:
  1664     0CCE                     l3584:
  1665     0CCE  0A47               	incf	___flmul@bexp,w
  1666     0CCF  1D03               	btfss	3,2
  1667     0CD0  2CD2               	goto	u5021
  1668     0CD1  2CD3               	goto	u5020
  1669     0CD2                     u5021:
  1670     0CD2  2CDB               	goto	l3588
  1671     0CD3                     u5020:
  1672     0CD3                     l3586:
  1673     0CD3  3000               	movlw	0
  1674     0CD4  00B7               	movwf	___flmul@b+3
  1675     0CD5  3000               	movlw	0
  1676     0CD6  00B6               	movwf	___flmul@b+2
  1677     0CD7  3000               	movlw	0
  1678     0CD8  00B5               	movwf	___flmul@b+1
  1679     0CD9  3000               	movlw	0
  1680     0CDA  00B4               	movwf	___flmul@b
  1681     0CDB                     l3588:
  1682     0CDB  17B6               	bsf	___flmul@b+2,7
  1683     0CDC  2CE5               	goto	l3592
  1684     0CDD                     l3590:
  1685     0CDD  3000               	movlw	0
  1686     0CDE  00B7               	movwf	___flmul@b+3
  1687     0CDF  3000               	movlw	0
  1688     0CE0  00B6               	movwf	___flmul@b+2
  1689     0CE1  3000               	movlw	0
  1690     0CE2  00B5               	movwf	___flmul@b+1
  1691     0CE3  3000               	movlw	0
  1692     0CE4  00B4               	movwf	___flmul@b
  1693     0CE5                     l3592:
  1694     0CE5  083B               	movf	___flmul@a+3,w
  1695     0CE6  3980               	andlw	128
  1696     0CE7  00FF               	movwf	btemp+1
  1697     0CE8  087F               	movf	btemp+1,w
  1698     0CE9  06C1               	xorwf	___flmul@sign,f
  1699     0CEA                     l3594:
  1700     0CEA  083B               	movf	___flmul@a+3,w
  1701     0CEB  00BC               	movwf	??___flmul
  1702     0CEC  073C               	addwf	??___flmul,w
  1703     0CED  00C2               	movwf	___flmul@aexp
  1704     0CEE                     l3596:
  1705     0CEE  1FBA               	btfss	___flmul@a+2,7
  1706     0CEF  2CF1               	goto	u5031
  1707     0CF0  2CF2               	goto	u5030
  1708     0CF1                     u5031:
  1709     0CF1  2CF3               	goto	l3600
  1710     0CF2                     u5030:
  1711     0CF2                     l3598:
  1712     0CF2  1442               	bsf	___flmul@aexp,0
  1713     0CF3                     l3600:
  1714     0CF3  0842               	movf	___flmul@aexp,w
  1715     0CF4  1903               	btfsc	3,2
  1716     0CF5  2CF7               	goto	u5041
  1717     0CF6  2CF8               	goto	u5040
  1718     0CF7                     u5041:
  1719     0CF7  2D07               	goto	l3608
  1720     0CF8                     u5040:
  1721     0CF8                     l3602:
  1722     0CF8  0A42               	incf	___flmul@aexp,w
  1723     0CF9  1D03               	btfss	3,2
  1724     0CFA  2CFC               	goto	u5051
  1725     0CFB  2CFD               	goto	u5050
  1726     0CFC                     u5051:
  1727     0CFC  2D05               	goto	l3606
  1728     0CFD                     u5050:
  1729     0CFD                     l3604:
  1730     0CFD  3000               	movlw	0
  1731     0CFE  00BB               	movwf	___flmul@a+3
  1732     0CFF  3000               	movlw	0
  1733     0D00  00BA               	movwf	___flmul@a+2
  1734     0D01  3000               	movlw	0
  1735     0D02  00B9               	movwf	___flmul@a+1
  1736     0D03  3000               	movlw	0
  1737     0D04  00B8               	movwf	___flmul@a
  1738     0D05                     l3606:
  1739     0D05  17BA               	bsf	___flmul@a+2,7
  1740     0D06  2D0F               	goto	l3610
  1741     0D07                     l3608:
  1742     0D07  3000               	movlw	0
  1743     0D08  00BB               	movwf	___flmul@a+3
  1744     0D09  3000               	movlw	0
  1745     0D0A  00BA               	movwf	___flmul@a+2
  1746     0D0B  3000               	movlw	0
  1747     0D0C  00B9               	movwf	___flmul@a+1
  1748     0D0D  3000               	movlw	0
  1749     0D0E  00B8               	movwf	___flmul@a
  1750     0D0F                     l3610:
  1751     0D0F  0842               	movf	___flmul@aexp,w
  1752     0D10  1903               	btfsc	3,2
  1753     0D11  2D13               	goto	u5061
  1754     0D12  2D14               	goto	u5060
  1755     0D13                     u5061:
  1756     0D13  2D19               	goto	l3614
  1757     0D14                     u5060:
  1758     0D14                     l3612:
  1759     0D14  0847               	movf	___flmul@bexp,w
  1760     0D15  1D03               	btfss	3,2
  1761     0D16  2D18               	goto	u5071
  1762     0D17  2D19               	goto	u5070
  1763     0D18                     u5071:
  1764     0D18  2D22               	goto	l3618
  1765     0D19                     u5070:
  1766     0D19                     l3614:
  1767     0D19  3000               	movlw	0
  1768     0D1A  00B7               	movwf	?___flmul+3
  1769     0D1B  3000               	movlw	0
  1770     0D1C  00B6               	movwf	?___flmul+2
  1771     0D1D  3000               	movlw	0
  1772     0D1E  00B5               	movwf	?___flmul+1
  1773     0D1F  3000               	movlw	0
  1774     0D20  00B4               	movwf	?___flmul
  1775     0D21  2FFF               	goto	l695
  1776     0D22                     l3618:
  1777     0D22  0834               	movf	___flmul@b,w
  1778     0D23  00A0               	movwf	__Umul8_16@multiplicand
  1779     0D24  083A               	movf	___flmul@a+2,w
  1780     0D25  160A  118A  243F  120A  158A  	fcall	__Umul8_16
  1781     0D2A  1283               	bcf	3,5	;RP0=0, select bank0
  1782     0D2B  1303               	bcf	3,6	;RP1=0, select bank0
  1783     0D2C  0821               	movf	?__Umul8_16+1,w
  1784     0D2D  00CD               	movwf	___flmul@temp+1
  1785     0D2E  0820               	movf	?__Umul8_16,w
  1786     0D2F  00CC               	movwf	___flmul@temp
  1787     0D30                     l3620:
  1788     0D30  084C               	movf	___flmul@temp,w
  1789     0D31  00BC               	movwf	??___flmul
  1790     0D32  01BD               	clrf	??___flmul+1
  1791     0D33  01BE               	clrf	??___flmul+2
  1792     0D34  01BF               	clrf	??___flmul+3
  1793     0D35  083F               	movf	??___flmul+3,w
  1794     0D36  00C6               	movwf	___flmul@grs+3
  1795     0D37  083E               	movf	??___flmul+2,w
  1796     0D38  00C5               	movwf	___flmul@grs+2
  1797     0D39  083D               	movf	??___flmul+1,w
  1798     0D3A  00C4               	movwf	___flmul@grs+1
  1799     0D3B  083C               	movf	??___flmul,w
  1800     0D3C  00C3               	movwf	___flmul@grs
  1801     0D3D                     l3622:
  1802     0D3D  084D               	movf	___flmul@temp+1,w
  1803     0D3E  00BC               	movwf	??___flmul
  1804     0D3F  01BD               	clrf	??___flmul+1
  1805     0D40  01BE               	clrf	??___flmul+2
  1806     0D41  01BF               	clrf	??___flmul+3
  1807     0D42  083F               	movf	??___flmul+3,w
  1808     0D43  00CB               	movwf	___flmul@prod+3
  1809     0D44  083E               	movf	??___flmul+2,w
  1810     0D45  00CA               	movwf	___flmul@prod+2
  1811     0D46  083D               	movf	??___flmul+1,w
  1812     0D47  00C9               	movwf	___flmul@prod+1
  1813     0D48  083C               	movf	??___flmul,w
  1814     0D49  00C8               	movwf	___flmul@prod
  1815     0D4A  0835               	movf	___flmul@b+1,w
  1816     0D4B  00A0               	movwf	__Umul8_16@multiplicand
  1817     0D4C  0839               	movf	___flmul@a+1,w
  1818     0D4D  160A  118A  243F  120A  158A  	fcall	__Umul8_16
  1819     0D52  1283               	bcf	3,5	;RP0=0, select bank0
  1820     0D53  1303               	bcf	3,6	;RP1=0, select bank0
  1821     0D54  0821               	movf	?__Umul8_16+1,w
  1822     0D55  00CD               	movwf	___flmul@temp+1
  1823     0D56  0820               	movf	?__Umul8_16,w
  1824     0D57  00CC               	movwf	___flmul@temp
  1825     0D58                     l3624:
  1826     0D58  084C               	movf	___flmul@temp,w
  1827     0D59  00BC               	movwf	??___flmul
  1828     0D5A  01BD               	clrf	??___flmul+1
  1829     0D5B  01BE               	clrf	??___flmul+2
  1830     0D5C  01BF               	clrf	??___flmul+3
  1831     0D5D  083C               	movf	??___flmul,w
  1832     0D5E  07C3               	addwf	___flmul@grs,f
  1833     0D5F  083D               	movf	??___flmul+1,w
  1834     0D60  1103               	clrz
  1835     0D61  1803               	skipnc
  1836     0D62  3E01               	addlw	1
  1837     0D63  1903               	skipnz
  1838     0D64  2D66               	goto	u5081
  1839     0D65  07C4               	addwf	___flmul@grs+1,f
  1840     0D66                     u5081:
  1841     0D66  083E               	movf	??___flmul+2,w
  1842     0D67  1103               	clrz
  1843     0D68  1803               	skipnc
  1844     0D69  3E01               	addlw	1
  1845     0D6A  1903               	skipnz
  1846     0D6B  2D6D               	goto	u5082
  1847     0D6C  07C5               	addwf	___flmul@grs+2,f
  1848     0D6D                     u5082:
  1849     0D6D  083F               	movf	??___flmul+3,w
  1850     0D6E  1103               	clrz
  1851     0D6F  1803               	skipnc
  1852     0D70  3E01               	addlw	1
  1853     0D71  1903               	skipnz
  1854     0D72  2D74               	goto	u5083
  1855     0D73  07C6               	addwf	___flmul@grs+3,f
  1856     0D74                     u5083:
  1857     0D74                     l3626:
  1858     0D74  084D               	movf	___flmul@temp+1,w
  1859     0D75  00BC               	movwf	??___flmul
  1860     0D76  01BD               	clrf	??___flmul+1
  1861     0D77  01BE               	clrf	??___flmul+2
  1862     0D78  01BF               	clrf	??___flmul+3
  1863     0D79  083C               	movf	??___flmul,w
  1864     0D7A  07C8               	addwf	___flmul@prod,f
  1865     0D7B  083D               	movf	??___flmul+1,w
  1866     0D7C  1103               	clrz
  1867     0D7D  1803               	skipnc
  1868     0D7E  3E01               	addlw	1
  1869     0D7F  1903               	skipnz
  1870     0D80  2D82               	goto	u5091
  1871     0D81  07C9               	addwf	___flmul@prod+1,f
  1872     0D82                     u5091:
  1873     0D82  083E               	movf	??___flmul+2,w
  1874     0D83  1103               	clrz
  1875     0D84  1803               	skipnc
  1876     0D85  3E01               	addlw	1
  1877     0D86  1903               	skipnz
  1878     0D87  2D89               	goto	u5092
  1879     0D88  07CA               	addwf	___flmul@prod+2,f
  1880     0D89                     u5092:
  1881     0D89  083F               	movf	??___flmul+3,w
  1882     0D8A  1103               	clrz
  1883     0D8B  1803               	skipnc
  1884     0D8C  3E01               	addlw	1
  1885     0D8D  1903               	skipnz
  1886     0D8E  2D90               	goto	u5093
  1887     0D8F  07CB               	addwf	___flmul@prod+3,f
  1888     0D90                     u5093:
  1889     0D90  0836               	movf	___flmul@b+2,w
  1890     0D91  00A0               	movwf	__Umul8_16@multiplicand
  1891     0D92  0838               	movf	___flmul@a,w
  1892     0D93  160A  118A  243F  120A  158A  	fcall	__Umul8_16
  1893     0D98  1283               	bcf	3,5	;RP0=0, select bank0
  1894     0D99  1303               	bcf	3,6	;RP1=0, select bank0
  1895     0D9A  0821               	movf	?__Umul8_16+1,w
  1896     0D9B  00CD               	movwf	___flmul@temp+1
  1897     0D9C  0820               	movf	?__Umul8_16,w
  1898     0D9D  00CC               	movwf	___flmul@temp
  1899     0D9E                     l3628:
  1900     0D9E  084C               	movf	___flmul@temp,w
  1901     0D9F  00BC               	movwf	??___flmul
  1902     0DA0  01BD               	clrf	??___flmul+1
  1903     0DA1  01BE               	clrf	??___flmul+2
  1904     0DA2  01BF               	clrf	??___flmul+3
  1905     0DA3  083C               	movf	??___flmul,w
  1906     0DA4  07C3               	addwf	___flmul@grs,f
  1907     0DA5  083D               	movf	??___flmul+1,w
  1908     0DA6  1103               	clrz
  1909     0DA7  1803               	skipnc
  1910     0DA8  3E01               	addlw	1
  1911     0DA9  1903               	skipnz
  1912     0DAA  2DAC               	goto	u5101
  1913     0DAB  07C4               	addwf	___flmul@grs+1,f
  1914     0DAC                     u5101:
  1915     0DAC  083E               	movf	??___flmul+2,w
  1916     0DAD  1103               	clrz
  1917     0DAE  1803               	skipnc
  1918     0DAF  3E01               	addlw	1
  1919     0DB0  1903               	skipnz
  1920     0DB1  2DB3               	goto	u5102
  1921     0DB2  07C5               	addwf	___flmul@grs+2,f
  1922     0DB3                     u5102:
  1923     0DB3  083F               	movf	??___flmul+3,w
  1924     0DB4  1103               	clrz
  1925     0DB5  1803               	skipnc
  1926     0DB6  3E01               	addlw	1
  1927     0DB7  1903               	skipnz
  1928     0DB8  2DBA               	goto	u5103
  1929     0DB9  07C6               	addwf	___flmul@grs+3,f
  1930     0DBA                     u5103:
  1931     0DBA                     l3630:
  1932     0DBA  084D               	movf	___flmul@temp+1,w
  1933     0DBB  00BC               	movwf	??___flmul
  1934     0DBC  01BD               	clrf	??___flmul+1
  1935     0DBD  01BE               	clrf	??___flmul+2
  1936     0DBE  01BF               	clrf	??___flmul+3
  1937     0DBF  083C               	movf	??___flmul,w
  1938     0DC0  07C8               	addwf	___flmul@prod,f
  1939     0DC1  083D               	movf	??___flmul+1,w
  1940     0DC2  1103               	clrz
  1941     0DC3  1803               	skipnc
  1942     0DC4  3E01               	addlw	1
  1943     0DC5  1903               	skipnz
  1944     0DC6  2DC8               	goto	u5111
  1945     0DC7  07C9               	addwf	___flmul@prod+1,f
  1946     0DC8                     u5111:
  1947     0DC8  083E               	movf	??___flmul+2,w
  1948     0DC9  1103               	clrz
  1949     0DCA  1803               	skipnc
  1950     0DCB  3E01               	addlw	1
  1951     0DCC  1903               	skipnz
  1952     0DCD  2DCF               	goto	u5112
  1953     0DCE  07CA               	addwf	___flmul@prod+2,f
  1954     0DCF                     u5112:
  1955     0DCF  083F               	movf	??___flmul+3,w
  1956     0DD0  1103               	clrz
  1957     0DD1  1803               	skipnc
  1958     0DD2  3E01               	addlw	1
  1959     0DD3  1903               	skipnz
  1960     0DD4  2DD6               	goto	u5113
  1961     0DD5  07CB               	addwf	___flmul@prod+3,f
  1962     0DD6                     u5113:
  1963     0DD6                     l3632:
  1964     0DD6  3008               	movlw	8
  1965     0DD7  00BC               	movwf	??___flmul
  1966     0DD8                     u5125:
  1967     0DD8  1003               	clrc
  1968     0DD9  0DC3               	rlf	___flmul@grs,f
  1969     0DDA  0DC4               	rlf	___flmul@grs+1,f
  1970     0DDB  0DC5               	rlf	___flmul@grs+2,f
  1971     0DDC  0DC6               	rlf	___flmul@grs+3,f
  1972     0DDD  0BBC               	decfsz	??___flmul,f
  1973     0DDE  2DD8               	goto	u5125
  1974     0DDF                     l3634:
  1975     0DDF  0835               	movf	___flmul@b+1,w
  1976     0DE0  00A0               	movwf	__Umul8_16@multiplicand
  1977     0DE1  0838               	movf	___flmul@a,w
  1978     0DE2  160A  118A  243F  120A  158A  	fcall	__Umul8_16
  1979     0DE7  1283               	bcf	3,5	;RP0=0, select bank0
  1980     0DE8  1303               	bcf	3,6	;RP1=0, select bank0
  1981     0DE9  0821               	movf	?__Umul8_16+1,w
  1982     0DEA  00CD               	movwf	___flmul@temp+1
  1983     0DEB  0820               	movf	?__Umul8_16,w
  1984     0DEC  00CC               	movwf	___flmul@temp
  1985     0DED                     l3636:
  1986     0DED  084C               	movf	___flmul@temp,w
  1987     0DEE  00BC               	movwf	??___flmul
  1988     0DEF  084D               	movf	___flmul@temp+1,w
  1989     0DF0  00BD               	movwf	??___flmul+1
  1990     0DF1  01BE               	clrf	??___flmul+2
  1991     0DF2  01BF               	clrf	??___flmul+3
  1992     0DF3  083C               	movf	??___flmul,w
  1993     0DF4  07C3               	addwf	___flmul@grs,f
  1994     0DF5  083D               	movf	??___flmul+1,w
  1995     0DF6  1103               	clrz
  1996     0DF7  1803               	skipnc
  1997     0DF8  3E01               	addlw	1
  1998     0DF9  1903               	skipnz
  1999     0DFA  2DFC               	goto	u5131
  2000     0DFB  07C4               	addwf	___flmul@grs+1,f
  2001     0DFC                     u5131:
  2002     0DFC  083E               	movf	??___flmul+2,w
  2003     0DFD  1103               	clrz
  2004     0DFE  1803               	skipnc
  2005     0DFF  3E01               	addlw	1
  2006     0E00  1903               	skipnz
  2007     0E01  2E03               	goto	u5132
  2008     0E02  07C5               	addwf	___flmul@grs+2,f
  2009     0E03                     u5132:
  2010     0E03  083F               	movf	??___flmul+3,w
  2011     0E04  1103               	clrz
  2012     0E05  1803               	skipnc
  2013     0E06  3E01               	addlw	1
  2014     0E07  1903               	skipnz
  2015     0E08  2E0A               	goto	u5133
  2016     0E09  07C6               	addwf	___flmul@grs+3,f
  2017     0E0A                     u5133:
  2018     0E0A                     l3638:
  2019     0E0A  0834               	movf	___flmul@b,w
  2020     0E0B  00A0               	movwf	__Umul8_16@multiplicand
  2021     0E0C  0839               	movf	___flmul@a+1,w
  2022     0E0D  160A  118A  243F  120A  158A  	fcall	__Umul8_16
  2023     0E12  1283               	bcf	3,5	;RP0=0, select bank0
  2024     0E13  1303               	bcf	3,6	;RP1=0, select bank0
  2025     0E14  0821               	movf	?__Umul8_16+1,w
  2026     0E15  00CD               	movwf	___flmul@temp+1
  2027     0E16  0820               	movf	?__Umul8_16,w
  2028     0E17  00CC               	movwf	___flmul@temp
  2029     0E18                     l3640:
  2030     0E18  084C               	movf	___flmul@temp,w
  2031     0E19  00BC               	movwf	??___flmul
  2032     0E1A  084D               	movf	___flmul@temp+1,w
  2033     0E1B  00BD               	movwf	??___flmul+1
  2034     0E1C  01BE               	clrf	??___flmul+2
  2035     0E1D  01BF               	clrf	??___flmul+3
  2036     0E1E  083C               	movf	??___flmul,w
  2037     0E1F  07C3               	addwf	___flmul@grs,f
  2038     0E20  083D               	movf	??___flmul+1,w
  2039     0E21  1103               	clrz
  2040     0E22  1803               	skipnc
  2041     0E23  3E01               	addlw	1
  2042     0E24  1903               	skipnz
  2043     0E25  2E27               	goto	u5141
  2044     0E26  07C4               	addwf	___flmul@grs+1,f
  2045     0E27                     u5141:
  2046     0E27  083E               	movf	??___flmul+2,w
  2047     0E28  1103               	clrz
  2048     0E29  1803               	skipnc
  2049     0E2A  3E01               	addlw	1
  2050     0E2B  1903               	skipnz
  2051     0E2C  2E2E               	goto	u5142
  2052     0E2D  07C5               	addwf	___flmul@grs+2,f
  2053     0E2E                     u5142:
  2054     0E2E  083F               	movf	??___flmul+3,w
  2055     0E2F  1103               	clrz
  2056     0E30  1803               	skipnc
  2057     0E31  3E01               	addlw	1
  2058     0E32  1903               	skipnz
  2059     0E33  2E35               	goto	u5143
  2060     0E34  07C6               	addwf	___flmul@grs+3,f
  2061     0E35                     u5143:
  2062     0E35                     l3642:
  2063     0E35  3008               	movlw	8
  2064     0E36  00BC               	movwf	??___flmul
  2065     0E37                     u5155:
  2066     0E37  1003               	clrc
  2067     0E38  0DC3               	rlf	___flmul@grs,f
  2068     0E39  0DC4               	rlf	___flmul@grs+1,f
  2069     0E3A  0DC5               	rlf	___flmul@grs+2,f
  2070     0E3B  0DC6               	rlf	___flmul@grs+3,f
  2071     0E3C  0BBC               	decfsz	??___flmul,f
  2072     0E3D  2E37               	goto	u5155
  2073     0E3E  0834               	movf	___flmul@b,w
  2074     0E3F  00A0               	movwf	__Umul8_16@multiplicand
  2075     0E40  0838               	movf	___flmul@a,w
  2076     0E41  160A  118A  243F  120A  158A  	fcall	__Umul8_16
  2077     0E46  1283               	bcf	3,5	;RP0=0, select bank0
  2078     0E47  1303               	bcf	3,6	;RP1=0, select bank0
  2079     0E48  0821               	movf	?__Umul8_16+1,w
  2080     0E49  00CD               	movwf	___flmul@temp+1
  2081     0E4A  0820               	movf	?__Umul8_16,w
  2082     0E4B  00CC               	movwf	___flmul@temp
  2083     0E4C                     l3644:
  2084     0E4C  084C               	movf	___flmul@temp,w
  2085     0E4D  00BC               	movwf	??___flmul
  2086     0E4E  084D               	movf	___flmul@temp+1,w
  2087     0E4F  00BD               	movwf	??___flmul+1
  2088     0E50  01BE               	clrf	??___flmul+2
  2089     0E51  01BF               	clrf	??___flmul+3
  2090     0E52  083C               	movf	??___flmul,w
  2091     0E53  07C3               	addwf	___flmul@grs,f
  2092     0E54  083D               	movf	??___flmul+1,w
  2093     0E55  1103               	clrz
  2094     0E56  1803               	skipnc
  2095     0E57  3E01               	addlw	1
  2096     0E58  1903               	skipnz
  2097     0E59  2E5B               	goto	u5161
  2098     0E5A  07C4               	addwf	___flmul@grs+1,f
  2099     0E5B                     u5161:
  2100     0E5B  083E               	movf	??___flmul+2,w
  2101     0E5C  1103               	clrz
  2102     0E5D  1803               	skipnc
  2103     0E5E  3E01               	addlw	1
  2104     0E5F  1903               	skipnz
  2105     0E60  2E62               	goto	u5162
  2106     0E61  07C5               	addwf	___flmul@grs+2,f
  2107     0E62                     u5162:
  2108     0E62  083F               	movf	??___flmul+3,w
  2109     0E63  1103               	clrz
  2110     0E64  1803               	skipnc
  2111     0E65  3E01               	addlw	1
  2112     0E66  1903               	skipnz
  2113     0E67  2E69               	goto	u5163
  2114     0E68  07C6               	addwf	___flmul@grs+3,f
  2115     0E69                     u5163:
  2116     0E69                     l3646:
  2117     0E69  0835               	movf	___flmul@b+1,w
  2118     0E6A  00A0               	movwf	__Umul8_16@multiplicand
  2119     0E6B  083A               	movf	___flmul@a+2,w
  2120     0E6C  160A  118A  243F  120A  158A  	fcall	__Umul8_16
  2121     0E71  1283               	bcf	3,5	;RP0=0, select bank0
  2122     0E72  1303               	bcf	3,6	;RP1=0, select bank0
  2123     0E73  0821               	movf	?__Umul8_16+1,w
  2124     0E74  00CD               	movwf	___flmul@temp+1
  2125     0E75  0820               	movf	?__Umul8_16,w
  2126     0E76  00CC               	movwf	___flmul@temp
  2127     0E77  084C               	movf	___flmul@temp,w
  2128     0E78  00BC               	movwf	??___flmul
  2129     0E79  084D               	movf	___flmul@temp+1,w
  2130     0E7A  00BD               	movwf	??___flmul+1
  2131     0E7B  01BE               	clrf	??___flmul+2
  2132     0E7C  01BF               	clrf	??___flmul+3
  2133     0E7D  083C               	movf	??___flmul,w
  2134     0E7E  07C8               	addwf	___flmul@prod,f
  2135     0E7F  083D               	movf	??___flmul+1,w
  2136     0E80  1103               	clrz
  2137     0E81  1803               	skipnc
  2138     0E82  3E01               	addlw	1
  2139     0E83  1903               	skipnz
  2140     0E84  2E86               	goto	u5171
  2141     0E85  07C9               	addwf	___flmul@prod+1,f
  2142     0E86                     u5171:
  2143     0E86  083E               	movf	??___flmul+2,w
  2144     0E87  1103               	clrz
  2145     0E88  1803               	skipnc
  2146     0E89  3E01               	addlw	1
  2147     0E8A  1903               	skipnz
  2148     0E8B  2E8D               	goto	u5172
  2149     0E8C  07CA               	addwf	___flmul@prod+2,f
  2150     0E8D                     u5172:
  2151     0E8D  083F               	movf	??___flmul+3,w
  2152     0E8E  1103               	clrz
  2153     0E8F  1803               	skipnc
  2154     0E90  3E01               	addlw	1
  2155     0E91  1903               	skipnz
  2156     0E92  2E94               	goto	u5173
  2157     0E93  07CB               	addwf	___flmul@prod+3,f
  2158     0E94                     u5173:
  2159     0E94                     l3648:
  2160     0E94  0836               	movf	___flmul@b+2,w
  2161     0E95  00A0               	movwf	__Umul8_16@multiplicand
  2162     0E96  0839               	movf	___flmul@a+1,w
  2163     0E97  160A  118A  243F  120A  158A  	fcall	__Umul8_16
  2164     0E9C  1283               	bcf	3,5	;RP0=0, select bank0
  2165     0E9D  1303               	bcf	3,6	;RP1=0, select bank0
  2166     0E9E  0821               	movf	?__Umul8_16+1,w
  2167     0E9F  00CD               	movwf	___flmul@temp+1
  2168     0EA0  0820               	movf	?__Umul8_16,w
  2169     0EA1  00CC               	movwf	___flmul@temp
  2170     0EA2                     l3650:
  2171     0EA2  084C               	movf	___flmul@temp,w
  2172     0EA3  00BC               	movwf	??___flmul
  2173     0EA4  084D               	movf	___flmul@temp+1,w
  2174     0EA5  00BD               	movwf	??___flmul+1
  2175     0EA6  01BE               	clrf	??___flmul+2
  2176     0EA7  01BF               	clrf	??___flmul+3
  2177     0EA8  083C               	movf	??___flmul,w
  2178     0EA9  07C8               	addwf	___flmul@prod,f
  2179     0EAA  083D               	movf	??___flmul+1,w
  2180     0EAB  1103               	clrz
  2181     0EAC  1803               	skipnc
  2182     0EAD  3E01               	addlw	1
  2183     0EAE  1903               	skipnz
  2184     0EAF  2EB1               	goto	u5181
  2185     0EB0  07C9               	addwf	___flmul@prod+1,f
  2186     0EB1                     u5181:
  2187     0EB1  083E               	movf	??___flmul+2,w
  2188     0EB2  1103               	clrz
  2189     0EB3  1803               	skipnc
  2190     0EB4  3E01               	addlw	1
  2191     0EB5  1903               	skipnz
  2192     0EB6  2EB8               	goto	u5182
  2193     0EB7  07CA               	addwf	___flmul@prod+2,f
  2194     0EB8                     u5182:
  2195     0EB8  083F               	movf	??___flmul+3,w
  2196     0EB9  1103               	clrz
  2197     0EBA  1803               	skipnc
  2198     0EBB  3E01               	addlw	1
  2199     0EBC  1903               	skipnz
  2200     0EBD  2EBF               	goto	u5183
  2201     0EBE  07CB               	addwf	___flmul@prod+3,f
  2202     0EBF                     u5183:
  2203     0EBF  0836               	movf	___flmul@b+2,w
  2204     0EC0  00A0               	movwf	__Umul8_16@multiplicand
  2205     0EC1  083A               	movf	___flmul@a+2,w
  2206     0EC2  160A  118A  243F  120A  158A  	fcall	__Umul8_16
  2207     0EC7  1283               	bcf	3,5	;RP0=0, select bank0
  2208     0EC8  1303               	bcf	3,6	;RP1=0, select bank0
  2209     0EC9  0821               	movf	?__Umul8_16+1,w
  2210     0ECA  00CD               	movwf	___flmul@temp+1
  2211     0ECB  0820               	movf	?__Umul8_16,w
  2212     0ECC  00CC               	movwf	___flmul@temp
  2213     0ECD                     l3652:
  2214     0ECD  084C               	movf	___flmul@temp,w
  2215     0ECE  00BC               	movwf	??___flmul
  2216     0ECF  084D               	movf	___flmul@temp+1,w
  2217     0ED0  00BD               	movwf	??___flmul+1
  2218     0ED1  01BE               	clrf	??___flmul+2
  2219     0ED2  01BF               	clrf	??___flmul+3
  2220     0ED3  3008               	movlw	8
  2221     0ED4                     u5195:
  2222     0ED4  1003               	clrc
  2223     0ED5  0DBC               	rlf	??___flmul,f
  2224     0ED6  0DBD               	rlf	??___flmul+1,f
  2225     0ED7  0DBE               	rlf	??___flmul+2,f
  2226     0ED8  0DBF               	rlf	??___flmul+3,f
  2227     0ED9                     u5190:
  2228     0ED9  3EFF               	addlw	-1
  2229     0EDA  1D03               	skipz
  2230     0EDB  2ED4               	goto	u5195
  2231     0EDC  083C               	movf	??___flmul,w
  2232     0EDD  07C8               	addwf	___flmul@prod,f
  2233     0EDE  083D               	movf	??___flmul+1,w
  2234     0EDF  1103               	clrz
  2235     0EE0  1803               	skipnc
  2236     0EE1  3E01               	addlw	1
  2237     0EE2  1903               	skipnz
  2238     0EE3  2EE5               	goto	u5201
  2239     0EE4  07C9               	addwf	___flmul@prod+1,f
  2240     0EE5                     u5201:
  2241     0EE5  083E               	movf	??___flmul+2,w
  2242     0EE6  1103               	clrz
  2243     0EE7  1803               	skipnc
  2244     0EE8  3E01               	addlw	1
  2245     0EE9  1903               	skipnz
  2246     0EEA  2EEC               	goto	u5202
  2247     0EEB  07CA               	addwf	___flmul@prod+2,f
  2248     0EEC                     u5202:
  2249     0EEC  083F               	movf	??___flmul+3,w
  2250     0EED  1103               	clrz
  2251     0EEE  1803               	skipnc
  2252     0EEF  3E01               	addlw	1
  2253     0EF0  1903               	skipnz
  2254     0EF1  2EF3               	goto	u5203
  2255     0EF2  07CB               	addwf	___flmul@prod+3,f
  2256     0EF3                     u5203:
  2257     0EF3                     l3654:
  2258     0EF3  0843               	movf	___flmul@grs,w
  2259     0EF4  00BC               	movwf	??___flmul
  2260     0EF5  0844               	movf	___flmul@grs+1,w
  2261     0EF6  00BD               	movwf	??___flmul+1
  2262     0EF7  0845               	movf	___flmul@grs+2,w
  2263     0EF8  00BE               	movwf	??___flmul+2
  2264     0EF9  0846               	movf	___flmul@grs+3,w
  2265     0EFA  00BF               	movwf	??___flmul+3
  2266     0EFB  3018               	movlw	24
  2267     0EFC                     u5215:
  2268     0EFC  1003               	clrc
  2269     0EFD  0CBF               	rrf	??___flmul+3,f
  2270     0EFE  0CBE               	rrf	??___flmul+2,f
  2271     0EFF  0CBD               	rrf	??___flmul+1,f
  2272     0F00  0CBC               	rrf	??___flmul,f
  2273     0F01                     u5210:
  2274     0F01  3EFF               	addlw	-1
  2275     0F02  1D03               	skipz
  2276     0F03  2EFC               	goto	u5215
  2277     0F04  083C               	movf	??___flmul,w
  2278     0F05  07C8               	addwf	___flmul@prod,f
  2279     0F06  083D               	movf	??___flmul+1,w
  2280     0F07  1103               	clrz
  2281     0F08  1803               	skipnc
  2282     0F09  3E01               	addlw	1
  2283     0F0A  1903               	skipnz
  2284     0F0B  2F0D               	goto	u5221
  2285     0F0C  07C9               	addwf	___flmul@prod+1,f
  2286     0F0D                     u5221:
  2287     0F0D  083E               	movf	??___flmul+2,w
  2288     0F0E  1103               	clrz
  2289     0F0F  1803               	skipnc
  2290     0F10  3E01               	addlw	1
  2291     0F11  1903               	skipnz
  2292     0F12  2F14               	goto	u5222
  2293     0F13  07CA               	addwf	___flmul@prod+2,f
  2294     0F14                     u5222:
  2295     0F14  083F               	movf	??___flmul+3,w
  2296     0F15  1103               	clrz
  2297     0F16  1803               	skipnc
  2298     0F17  3E01               	addlw	1
  2299     0F18  1903               	skipnz
  2300     0F19  2F1B               	goto	u5223
  2301     0F1A  07CB               	addwf	___flmul@prod+3,f
  2302     0F1B                     u5223:
  2303     0F1B                     l3656:
  2304     0F1B  3008               	movlw	8
  2305     0F1C  00BC               	movwf	??___flmul
  2306     0F1D                     u5235:
  2307     0F1D  1003               	clrc
  2308     0F1E  0DC3               	rlf	___flmul@grs,f
  2309     0F1F  0DC4               	rlf	___flmul@grs+1,f
  2310     0F20  0DC5               	rlf	___flmul@grs+2,f
  2311     0F21  0DC6               	rlf	___flmul@grs+3,f
  2312     0F22  0BBC               	decfsz	??___flmul,f
  2313     0F23  2F1D               	goto	u5235
  2314     0F24                     l3658:
  2315     0F24  0847               	movf	___flmul@bexp,w
  2316     0F25  0742               	addwf	___flmul@aexp,w
  2317     0F26  00BC               	movwf	??___flmul
  2318     0F27  01BD               	clrf	??___flmul+1
  2319     0F28  0DBD               	rlf	??___flmul+1,f
  2320     0F29  083C               	movf	??___flmul,w
  2321     0F2A  3E82               	addlw	130
  2322     0F2B  00CC               	movwf	___flmul@temp
  2323     0F2C  083D               	movf	??___flmul+1,w
  2324     0F2D  1803               	skipnc
  2325     0F2E  3E01               	addlw	1
  2326     0F2F  3EFF               	addlw	255
  2327     0F30  00CD               	movwf	___flmul@temp+1
  2328     0F31  2F4F               	goto	l3670
  2329     0F32                     l3660:
  2330     0F32  3001               	movlw	1
  2331     0F33  00BC               	movwf	??___flmul
  2332     0F34                     u5245:
  2333     0F34  1003               	clrc
  2334     0F35  0DC8               	rlf	___flmul@prod,f
  2335     0F36  0DC9               	rlf	___flmul@prod+1,f
  2336     0F37  0DCA               	rlf	___flmul@prod+2,f
  2337     0F38  0DCB               	rlf	___flmul@prod+3,f
  2338     0F39  0BBC               	decfsz	??___flmul,f
  2339     0F3A  2F34               	goto	u5245
  2340     0F3B                     l3662:
  2341     0F3B  1FC6               	btfss	___flmul@grs+3,7
  2342     0F3C  2F3E               	goto	u5251
  2343     0F3D  2F3F               	goto	u5250
  2344     0F3E                     u5251:
  2345     0F3E  2F40               	goto	l3666
  2346     0F3F                     u5250:
  2347     0F3F                     l3664:
  2348     0F3F  1448               	bsf	___flmul@prod,0
  2349     0F40                     l3666:
  2350     0F40  3001               	movlw	1
  2351     0F41  00BC               	movwf	??___flmul
  2352     0F42                     u5265:
  2353     0F42  1003               	clrc
  2354     0F43  0DC3               	rlf	___flmul@grs,f
  2355     0F44  0DC4               	rlf	___flmul@grs+1,f
  2356     0F45  0DC5               	rlf	___flmul@grs+2,f
  2357     0F46  0DC6               	rlf	___flmul@grs+3,f
  2358     0F47  0BBC               	decfsz	??___flmul,f
  2359     0F48  2F42               	goto	u5265
  2360     0F49                     l3668:
  2361     0F49  30FF               	movlw	255
  2362     0F4A  07CC               	addwf	___flmul@temp,f
  2363     0F4B  1803               	skipnc
  2364     0F4C  0ACD               	incf	___flmul@temp+1,f
  2365     0F4D  30FF               	movlw	255
  2366     0F4E  07CD               	addwf	___flmul@temp+1,f
  2367     0F4F                     l3670:
  2368     0F4F  1FCA               	btfss	___flmul@prod+2,7
  2369     0F50  2F52               	goto	u5271
  2370     0F51  2F53               	goto	u5270
  2371     0F52                     u5271:
  2372     0F52  2F32               	goto	l3660
  2373     0F53                     u5270:
  2374     0F53                     l3672:
  2375     0F53  01C2               	clrf	___flmul@aexp
  2376     0F54                     l3674:
  2377     0F54  1FC6               	btfss	___flmul@grs+3,7
  2378     0F55  2F57               	goto	u5281
  2379     0F56  2F58               	goto	u5280
  2380     0F57                     u5281:
  2381     0F57  2F74               	goto	l3682
  2382     0F58                     u5280:
  2383     0F58                     l3676:
  2384     0F58  30FF               	movlw	255
  2385     0F59  0543               	andwf	___flmul@grs,w
  2386     0F5A  00BC               	movwf	??___flmul
  2387     0F5B  30FF               	movlw	255
  2388     0F5C  0544               	andwf	___flmul@grs+1,w
  2389     0F5D  00BD               	movwf	??___flmul+1
  2390     0F5E  30FF               	movlw	255
  2391     0F5F  0545               	andwf	___flmul@grs+2,w
  2392     0F60  00BE               	movwf	??___flmul+2
  2393     0F61  307F               	movlw	127
  2394     0F62  0546               	andwf	___flmul@grs+3,w
  2395     0F63  00BF               	movwf	??___flmul+3
  2396     0F64  083F               	movf	??___flmul+3,w
  2397     0F65  043E               	iorwf	??___flmul+2,w
  2398     0F66  043D               	iorwf	??___flmul+1,w
  2399     0F67  043C               	iorwf	??___flmul,w
  2400     0F68  1903               	skipnz
  2401     0F69  2F6B               	goto	u5291
  2402     0F6A  2F6C               	goto	u5290
  2403     0F6B                     u5291:
  2404     0F6B  2F6F               	goto	l701
  2405     0F6C                     u5290:
  2406     0F6C                     l3678:
  2407     0F6C  01C2               	clrf	___flmul@aexp
  2408     0F6D  0AC2               	incf	___flmul@aexp,f
  2409     0F6E  2F74               	goto	l3682
  2410     0F6F                     l701:
  2411     0F6F  1C48               	btfss	___flmul@prod,0
  2412     0F70  2F72               	goto	u5301
  2413     0F71  2F73               	goto	u5300
  2414     0F72                     u5301:
  2415     0F72  2F74               	goto	l3682
  2416     0F73                     u5300:
  2417     0F73  2F6C               	goto	l3678
  2418     0F74                     l3682:
  2419     0F74  0842               	movf	___flmul@aexp,w
  2420     0F75  1903               	btfsc	3,2
  2421     0F76  2F78               	goto	u5311
  2422     0F77  2F79               	goto	u5310
  2423     0F78                     u5311:
  2424     0F78  2FAA               	goto	l3692
  2425     0F79                     u5310:
  2426     0F79                     l3684:
  2427     0F79  3001               	movlw	1
  2428     0F7A  07C8               	addwf	___flmul@prod,f
  2429     0F7B  3000               	movlw	0
  2430     0F7C  1803               	skipnc
  2431     0F7D  3001               	movlw	1
  2432     0F7E  07C9               	addwf	___flmul@prod+1,f
  2433     0F7F  3000               	movlw	0
  2434     0F80  1803               	skipnc
  2435     0F81  3001               	movlw	1
  2436     0F82  07CA               	addwf	___flmul@prod+2,f
  2437     0F83  3000               	movlw	0
  2438     0F84  1803               	skipnc
  2439     0F85  3001               	movlw	1
  2440     0F86  07CB               	addwf	___flmul@prod+3,f
  2441     0F87                     l3686:
  2442     0F87  1C4B               	btfss	___flmul@prod+3,0
  2443     0F88  2F8A               	goto	u5321
  2444     0F89  2F8B               	goto	u5320
  2445     0F8A                     u5321:
  2446     0F8A  2FAA               	goto	l3692
  2447     0F8B                     u5320:
  2448     0F8B                     l3688:
  2449     0F8B  0848               	movf	___flmul@prod,w
  2450     0F8C  00BC               	movwf	??___flmul
  2451     0F8D  0849               	movf	___flmul@prod+1,w
  2452     0F8E  00BD               	movwf	??___flmul+1
  2453     0F8F  084A               	movf	___flmul@prod+2,w
  2454     0F90  00BE               	movwf	??___flmul+2
  2455     0F91  084B               	movf	___flmul@prod+3,w
  2456     0F92  00BF               	movwf	??___flmul+3
  2457     0F93  3001               	movlw	1
  2458     0F94  00C0               	movwf	??___flmul+4
  2459     0F95                     u5335:
  2460     0F95  0D3F               	rlf	??___flmul+3,w
  2461     0F96  0CBF               	rrf	??___flmul+3,f
  2462     0F97  0CBE               	rrf	??___flmul+2,f
  2463     0F98  0CBD               	rrf	??___flmul+1,f
  2464     0F99  0CBC               	rrf	??___flmul,f
  2465     0F9A                     u5330:
  2466     0F9A  0BC0               	decfsz	??___flmul+4,f
  2467     0F9B  2F95               	goto	u5335
  2468     0F9C  083F               	movf	??___flmul+3,w
  2469     0F9D  00CB               	movwf	___flmul@prod+3
  2470     0F9E  083E               	movf	??___flmul+2,w
  2471     0F9F  00CA               	movwf	___flmul@prod+2
  2472     0FA0  083D               	movf	??___flmul+1,w
  2473     0FA1  00C9               	movwf	___flmul@prod+1
  2474     0FA2  083C               	movf	??___flmul,w
  2475     0FA3  00C8               	movwf	___flmul@prod
  2476     0FA4                     l3690:
  2477     0FA4  3001               	movlw	1
  2478     0FA5  07CC               	addwf	___flmul@temp,f
  2479     0FA6  1803               	skipnc
  2480     0FA7  0ACD               	incf	___flmul@temp+1,f
  2481     0FA8  3000               	movlw	0
  2482     0FA9  07CD               	addwf	___flmul@temp+1,f
  2483     0FAA                     l3692:
  2484     0FAA  084D               	movf	___flmul@temp+1,w
  2485     0FAB  3A80               	xorlw	128
  2486     0FAC  00FF               	movwf	btemp+1
  2487     0FAD  3080               	movlw	128
  2488     0FAE  027F               	subwf	btemp+1,w
  2489     0FAF  1D03               	skipz
  2490     0FB0  2FB3               	goto	u5345
  2491     0FB1  30FF               	movlw	255
  2492     0FB2  024C               	subwf	___flmul@temp,w
  2493     0FB3                     u5345:
  2494     0FB3  1C03               	skipc
  2495     0FB4  2FB6               	goto	u5341
  2496     0FB5  2FB7               	goto	u5340
  2497     0FB6                     u5341:
  2498     0FB6  2FC2               	goto	l3696
  2499     0FB7                     u5340:
  2500     0FB7                     l3694:
  2501     0FB7  307F               	movlw	127
  2502     0FB8  1283               	bcf	3,5	;RP0=0, select bank0
  2503     0FB9  1303               	bcf	3,6	;RP1=0, select bank0
  2504     0FBA  00CB               	movwf	___flmul@prod+3
  2505     0FBB  3080               	movlw	128
  2506     0FBC  00CA               	movwf	___flmul@prod+2
  2507     0FBD  3000               	movlw	0
  2508     0FBE  00C9               	movwf	___flmul@prod+1
  2509     0FBF  3000               	movlw	0
  2510     0FC0  00C8               	movwf	___flmul@prod
  2511     0FC1  2FF3               	goto	l3710
  2512     0FC2                     l3696:
  2513     0FC2  1283               	bcf	3,5	;RP0=0, select bank0
  2514     0FC3  1303               	bcf	3,6	;RP1=0, select bank0
  2515     0FC4  084D               	movf	___flmul@temp+1,w
  2516     0FC5  3A80               	xorlw	128
  2517     0FC6  00FF               	movwf	btemp+1
  2518     0FC7  3080               	movlw	128
  2519     0FC8  027F               	subwf	btemp+1,w
  2520     0FC9  1D03               	skipz
  2521     0FCA  2FCD               	goto	u5355
  2522     0FCB  3001               	movlw	1
  2523     0FCC  024C               	subwf	___flmul@temp,w
  2524     0FCD                     u5355:
  2525     0FCD  1803               	skipnc
  2526     0FCE  2FD0               	goto	u5351
  2527     0FCF  2FD1               	goto	u5350
  2528     0FD0                     u5351:
  2529     0FD0  2FDD               	goto	l3702
  2530     0FD1                     u5350:
  2531     0FD1                     l3698:
  2532     0FD1  3000               	movlw	0
  2533     0FD2  1283               	bcf	3,5	;RP0=0, select bank0
  2534     0FD3  1303               	bcf	3,6	;RP1=0, select bank0
  2535     0FD4  00CB               	movwf	___flmul@prod+3
  2536     0FD5  3000               	movlw	0
  2537     0FD6  00CA               	movwf	___flmul@prod+2
  2538     0FD7  3000               	movlw	0
  2539     0FD8  00C9               	movwf	___flmul@prod+1
  2540     0FD9  3000               	movlw	0
  2541     0FDA  00C8               	movwf	___flmul@prod
  2542     0FDB                     l3700:
  2543     0FDB  01C1               	clrf	___flmul@sign
  2544     0FDC  2FF3               	goto	l3710
  2545     0FDD                     l3702:
  2546     0FDD  1283               	bcf	3,5	;RP0=0, select bank0
  2547     0FDE  1303               	bcf	3,6	;RP1=0, select bank0
  2548     0FDF  084C               	movf	___flmul@temp,w
  2549     0FE0  00C7               	movwf	___flmul@bexp
  2550     0FE1  30FF               	movlw	255
  2551     0FE2  05C8               	andwf	___flmul@prod,f
  2552     0FE3  30FF               	movlw	255
  2553     0FE4  05C9               	andwf	___flmul@prod+1,f
  2554     0FE5  307F               	movlw	127
  2555     0FE6  05CA               	andwf	___flmul@prod+2,f
  2556     0FE7  3000               	movlw	0
  2557     0FE8  05CB               	andwf	___flmul@prod+3,f
  2558     0FE9                     l3704:
  2559     0FE9  1C47               	btfss	___flmul@bexp,0
  2560     0FEA  2FEC               	goto	u5361
  2561     0FEB  2FED               	goto	u5360
  2562     0FEC                     u5361:
  2563     0FEC  2FEE               	goto	l3708
  2564     0FED                     u5360:
  2565     0FED                     l3706:
  2566     0FED  17CA               	bsf	___flmul@prod+2,7
  2567     0FEE                     l3708:
  2568     0FEE  0847               	movf	___flmul@bexp,w
  2569     0FEF  00BC               	movwf	??___flmul
  2570     0FF0  1003               	clrc
  2571     0FF1  0C3C               	rrf	??___flmul,w
  2572     0FF2  00CB               	movwf	___flmul@prod+3
  2573     0FF3                     l3710:
  2574     0FF3  0841               	movf	___flmul@sign,w
  2575     0FF4  00FF               	movwf	btemp+1
  2576     0FF5  087F               	movf	btemp+1,w
  2577     0FF6  04CB               	iorwf	___flmul@prod+3,f
  2578     0FF7                     l3712:
  2579     0FF7  084B               	movf	___flmul@prod+3,w
  2580     0FF8  00B7               	movwf	?___flmul+3
  2581     0FF9  084A               	movf	___flmul@prod+2,w
  2582     0FFA  00B6               	movwf	?___flmul+2
  2583     0FFB  0849               	movf	___flmul@prod+1,w
  2584     0FFC  00B5               	movwf	?___flmul+1
  2585     0FFD  0848               	movf	___flmul@prod,w
  2586     0FFE  00B4               	movwf	?___flmul
  2587     0FFF                     l695:
  2588     0FFF  0008               	return
  2589     1000                     __end_of___flmul:
  2590                           
  2591                           	psect	text3
  2592     143F                     __ptext3:	
  2593 ;; *************** function __Umul8_16 *****************
  2594 ;; Defined at:
  2595 ;;		line 4 in file "C:\Program Files\Microchip\xc8\v2.41\pic\sources\c90\common\Umul8_16.c"
  2596 ;; Parameters:    Size  Location     Type
  2597 ;;  multiplier      1    wreg     unsigned char 
  2598 ;;  multiplicand    1    0[BANK0 ] unsigned char 
  2599 ;; Auto vars:     Size  Location     Type
  2600 ;;  multiplier      1    8[BANK0 ] unsigned char 
  2601 ;;  word_mpld       2    6[BANK0 ] unsigned int 
  2602 ;;  product         2    4[BANK0 ] unsigned int 
  2603 ;; Return value:  Size  Location     Type
  2604 ;;                  2    0[BANK0 ] unsigned int 
  2605 ;; Registers used:
  2606 ;;		wreg, status,2, status,0
  2607 ;; Tracked objects:
  2608 ;;		On entry : 0/0
  2609 ;;		On exit  : 0/0
  2610 ;;		Unchanged: 0/0
  2611 ;; Data sizes:     COMMON   BANK0   BANK1   BANK3   BANK2
  2612 ;;      Params:         0       2       0       0       0
  2613 ;;      Locals:         0       5       0       0       0
  2614 ;;      Temps:          0       2       0       0       0
  2615 ;;      Totals:         0       9       0       0       0
  2616 ;;Total ram usage:        9 bytes
  2617 ;; Hardware stack levels used: 1
  2618 ;; Hardware stack levels required when called: 1
  2619 ;; This function calls:
  2620 ;;		Nothing
  2621 ;; This function is called by:
  2622 ;;		___flmul
  2623 ;; This function uses a non-reentrant model
  2624 ;;
  2625                           
  2626     143F                     __Umul8_16:	
  2627                           ;psect for function __Umul8_16
  2628                           
  2629                           
  2630                           ;incstack = 0
  2631                           ; Regs used in __Umul8_16: [wreg+status,2+status,0]
  2632                           ;__Umul8_16@multiplier stored from wreg
  2633     143F  1283               	bcf	3,5	;RP0=0, select bank0
  2634     1440  1303               	bcf	3,6	;RP1=0, select bank0
  2635     1441  00A8               	movwf	__Umul8_16@multiplier
  2636     1442                     l3056:
  2637     1442  01A4               	clrf	__Umul8_16@product
  2638     1443  01A5               	clrf	__Umul8_16@product+1
  2639     1444                     l3058:
  2640     1444  0820               	movf	__Umul8_16@multiplicand,w
  2641     1445  00A2               	movwf	??__Umul8_16
  2642     1446  01A3               	clrf	??__Umul8_16+1
  2643     1447  0822               	movf	??__Umul8_16,w
  2644     1448  00A6               	movwf	__Umul8_16@word_mpld
  2645     1449  0823               	movf	??__Umul8_16+1,w
  2646     144A  00A7               	movwf	__Umul8_16@word_mpld+1
  2647     144B                     l3060:
  2648     144B  1C28               	btfss	__Umul8_16@multiplier,0
  2649     144C  2C4E               	goto	u3901
  2650     144D  2C4F               	goto	u3900
  2651     144E                     u3901:
  2652     144E  2C55               	goto	l714
  2653     144F                     u3900:
  2654     144F                     l3062:
  2655     144F  0826               	movf	__Umul8_16@word_mpld,w
  2656     1450  07A4               	addwf	__Umul8_16@product,f
  2657     1451  1803               	skipnc
  2658     1452  0AA5               	incf	__Umul8_16@product+1,f
  2659     1453  0827               	movf	__Umul8_16@word_mpld+1,w
  2660     1454  07A5               	addwf	__Umul8_16@product+1,f
  2661     1455                     l714:
  2662     1455  3001               	movlw	1
  2663     1456                     u3915:
  2664     1456  1003               	clrc
  2665     1457  0DA6               	rlf	__Umul8_16@word_mpld,f
  2666     1458  0DA7               	rlf	__Umul8_16@word_mpld+1,f
  2667     1459  3EFF               	addlw	-1
  2668     145A  1D03               	skipz
  2669     145B  2C56               	goto	u3915
  2670     145C  1003               	clrc
  2671     145D  0CA8               	rrf	__Umul8_16@multiplier,f
  2672     145E                     l3064:
  2673     145E  0828               	movf	__Umul8_16@multiplier,w
  2674     145F  1D03               	btfss	3,2
  2675     1460  2C62               	goto	u3921
  2676     1461  2C63               	goto	u3920
  2677     1462                     u3921:
  2678     1462  2C4B               	goto	l3060
  2679     1463                     u3920:
  2680     1463                     l3066:
  2681     1463  0825               	movf	__Umul8_16@product+1,w
  2682     1464  00A1               	movwf	?__Umul8_16+1
  2683     1465  0824               	movf	__Umul8_16@product,w
  2684     1466  00A0               	movwf	?__Umul8_16
  2685     1467                     l716:
  2686     1467  0008               	return
  2687     1468                     __end_of__Umul8_16:
  2688                           
  2689                           	psect	text4
  2690     05E0                     __ptext4:	
  2691 ;; *************** function ___fldiv *****************
  2692 ;; Defined at:
  2693 ;;		line 8 in file "C:\Program Files\Microchip\xc8\v2.41\pic\sources\c90\common\sprcdiv.c"
  2694 ;; Parameters:    Size  Location     Type
  2695 ;;  a               4    0[BANK0 ] unsigned int 
  2696 ;;  b               4    4[BANK0 ] unsigned int 
  2697 ;; Auto vars:     Size  Location     Type
  2698 ;;  grs             4   20[BANK0 ] unsigned long 
  2699 ;;  rem             4   13[BANK0 ] unsigned long 
  2700 ;;  new_exp         2   18[BANK0 ] int 
  2701 ;;  aexp            1   25[BANK0 ] unsigned char 
  2702 ;;  bexp            1   24[BANK0 ] unsigned char 
  2703 ;;  sign            1   17[BANK0 ] unsigned char 
  2704 ;; Return value:  Size  Location     Type
  2705 ;;                  4    0[BANK0 ] unsigned char 
  2706 ;; Registers used:
  2707 ;;		wreg, status,2, status,0, btemp+1
  2708 ;; Tracked objects:
  2709 ;;		On entry : 0/0
  2710 ;;		On exit  : 0/0
  2711 ;;		Unchanged: 0/0
  2712 ;; Data sizes:     COMMON   BANK0   BANK1   BANK3   BANK2
  2713 ;;      Params:         0       8       0       0       0
  2714 ;;      Locals:         0      13       0       0       0
  2715 ;;      Temps:          0       5       0       0       0
  2716 ;;      Totals:         0      26       0       0       0
  2717 ;;Total ram usage:       26 bytes
  2718 ;; Hardware stack levels used: 1
  2719 ;; Hardware stack levels required when called: 1
  2720 ;; This function calls:
  2721 ;;		Nothing
  2722 ;; This function is called by:
  2723 ;;		_lecture_temperature_mes
  2724 ;; This function uses a non-reentrant model
  2725 ;;
  2726                           
  2727     05E0                     ___fldiv:	
  2728                           ;psect for function ___fldiv
  2729                           
  2730     05E0                     l3428:	
  2731                           ;incstack = 0
  2732                           ; Regs used in ___fldiv: [wreg+status,2+status,0+btemp+1]
  2733                           
  2734     05E0  1283               	bcf	3,5	;RP0=0, select bank0
  2735     05E1  1303               	bcf	3,6	;RP1=0, select bank0
  2736     05E2  0827               	movf	___fldiv@b+3,w
  2737     05E3  3980               	andlw	128
  2738     05E4  00B1               	movwf	___fldiv@sign
  2739     05E5                     l3430:
  2740     05E5  0827               	movf	___fldiv@b+3,w
  2741     05E6  00A8               	movwf	??___fldiv
  2742     05E7  0728               	addwf	??___fldiv,w
  2743     05E8  00B8               	movwf	___fldiv@bexp
  2744     05E9                     l3432:
  2745     05E9  1FA6               	btfss	___fldiv@b+2,7
  2746     05EA  2DEC               	goto	u4711
  2747     05EB  2DED               	goto	u4710
  2748     05EC                     u4711:
  2749     05EC  2DEE               	goto	l3436
  2750     05ED                     u4710:
  2751     05ED                     l3434:
  2752     05ED  1438               	bsf	___fldiv@bexp,0
  2753     05EE                     l3436:
  2754     05EE  0838               	movf	___fldiv@bexp,w
  2755     05EF  1903               	btfsc	3,2
  2756     05F0  2DF2               	goto	u4721
  2757     05F1  2DF3               	goto	u4720
  2758     05F2                     u4721:
  2759     05F2  2E03               	goto	l3446
  2760     05F3                     u4720:
  2761     05F3                     l3438:
  2762     05F3  0A38               	incf	___fldiv@bexp,w
  2763     05F4  1D03               	btfss	3,2
  2764     05F5  2DF7               	goto	u4731
  2765     05F6  2DF8               	goto	u4730
  2766     05F7                     u4731:
  2767     05F7  2E00               	goto	l3442
  2768     05F8                     u4730:
  2769     05F8                     l3440:
  2770     05F8  3000               	movlw	0
  2771     05F9  00A7               	movwf	___fldiv@b+3
  2772     05FA  3000               	movlw	0
  2773     05FB  00A6               	movwf	___fldiv@b+2
  2774     05FC  3000               	movlw	0
  2775     05FD  00A5               	movwf	___fldiv@b+1
  2776     05FE  3000               	movlw	0
  2777     05FF  00A4               	movwf	___fldiv@b
  2778     0600                     l3442:
  2779     0600  17A6               	bsf	___fldiv@b+2,7
  2780     0601                     l3444:
  2781     0601  01A7               	clrf	___fldiv@b+3
  2782     0602  2E0B               	goto	l3448
  2783     0603                     l3446:
  2784     0603  3000               	movlw	0
  2785     0604  00A7               	movwf	___fldiv@b+3
  2786     0605  3000               	movlw	0
  2787     0606  00A6               	movwf	___fldiv@b+2
  2788     0607  3000               	movlw	0
  2789     0608  00A5               	movwf	___fldiv@b+1
  2790     0609  3000               	movlw	0
  2791     060A  00A4               	movwf	___fldiv@b
  2792     060B                     l3448:
  2793     060B  0823               	movf	___fldiv@a+3,w
  2794     060C  3980               	andlw	128
  2795     060D  00FF               	movwf	btemp+1
  2796     060E  087F               	movf	btemp+1,w
  2797     060F  06B1               	xorwf	___fldiv@sign,f
  2798     0610                     l3450:
  2799     0610  0823               	movf	___fldiv@a+3,w
  2800     0611  00A8               	movwf	??___fldiv
  2801     0612  0728               	addwf	??___fldiv,w
  2802     0613  00B9               	movwf	___fldiv@aexp
  2803     0614                     l3452:
  2804     0614  1FA2               	btfss	___fldiv@a+2,7
  2805     0615  2E17               	goto	u4741
  2806     0616  2E18               	goto	u4740
  2807     0617                     u4741:
  2808     0617  2E19               	goto	l3456
  2809     0618                     u4740:
  2810     0618                     l3454:
  2811     0618  1439               	bsf	___fldiv@aexp,0
  2812     0619                     l3456:
  2813     0619  0839               	movf	___fldiv@aexp,w
  2814     061A  1903               	btfsc	3,2
  2815     061B  2E1D               	goto	u4751
  2816     061C  2E1E               	goto	u4750
  2817     061D                     u4751:
  2818     061D  2E2E               	goto	l3466
  2819     061E                     u4750:
  2820     061E                     l3458:
  2821     061E  0A39               	incf	___fldiv@aexp,w
  2822     061F  1D03               	btfss	3,2
  2823     0620  2E22               	goto	u4761
  2824     0621  2E23               	goto	u4760
  2825     0622                     u4761:
  2826     0622  2E2B               	goto	l3462
  2827     0623                     u4760:
  2828     0623                     l3460:
  2829     0623  3000               	movlw	0
  2830     0624  00A3               	movwf	___fldiv@a+3
  2831     0625  3000               	movlw	0
  2832     0626  00A2               	movwf	___fldiv@a+2
  2833     0627  3000               	movlw	0
  2834     0628  00A1               	movwf	___fldiv@a+1
  2835     0629  3000               	movlw	0
  2836     062A  00A0               	movwf	___fldiv@a
  2837     062B                     l3462:
  2838     062B  17A2               	bsf	___fldiv@a+2,7
  2839     062C                     l3464:
  2840     062C  01A3               	clrf	___fldiv@a+3
  2841     062D  2E36               	goto	l655
  2842     062E                     l3466:
  2843     062E  3000               	movlw	0
  2844     062F  00A3               	movwf	___fldiv@a+3
  2845     0630  3000               	movlw	0
  2846     0631  00A2               	movwf	___fldiv@a+2
  2847     0632  3000               	movlw	0
  2848     0633  00A1               	movwf	___fldiv@a+1
  2849     0634  3000               	movlw	0
  2850     0635  00A0               	movwf	___fldiv@a
  2851     0636                     l655:
  2852     0636  0823               	movf	___fldiv@a+3,w
  2853     0637  0422               	iorwf	___fldiv@a+2,w
  2854     0638  0421               	iorwf	___fldiv@a+1,w
  2855     0639  0420               	iorwf	___fldiv@a,w
  2856     063A  1D03               	skipz
  2857     063B  2E3D               	goto	u4771
  2858     063C  2E3E               	goto	u4770
  2859     063D                     u4771:
  2860     063D  2E57               	goto	l3476
  2861     063E                     u4770:
  2862     063E                     l3468:
  2863     063E  3000               	movlw	0
  2864     063F  00A7               	movwf	___fldiv@b+3
  2865     0640  3000               	movlw	0
  2866     0641  00A6               	movwf	___fldiv@b+2
  2867     0642  3000               	movlw	0
  2868     0643  00A5               	movwf	___fldiv@b+1
  2869     0644  3000               	movlw	0
  2870     0645  00A4               	movwf	___fldiv@b
  2871     0646  3080               	movlw	128
  2872     0647  04A6               	iorwf	___fldiv@b+2,f
  2873     0648  307F               	movlw	127
  2874     0649  04A7               	iorwf	___fldiv@b+3,f
  2875     064A                     l3470:
  2876     064A  0831               	movf	___fldiv@sign,w
  2877     064B  00FF               	movwf	btemp+1
  2878     064C  087F               	movf	btemp+1,w
  2879     064D  04A7               	iorwf	___fldiv@b+3,f
  2880     064E                     l3472:
  2881     064E  0827               	movf	___fldiv@b+3,w
  2882     064F  00A3               	movwf	?___fldiv+3
  2883     0650  0826               	movf	___fldiv@b+2,w
  2884     0651  00A2               	movwf	?___fldiv+2
  2885     0652  0825               	movf	___fldiv@b+1,w
  2886     0653  00A1               	movwf	?___fldiv+1
  2887     0654  0824               	movf	___fldiv@b,w
  2888     0655  00A0               	movwf	?___fldiv
  2889     0656  2FAE               	goto	l657
  2890     0657                     l3476:
  2891     0657  0838               	movf	___fldiv@bexp,w
  2892     0658  1D03               	btfss	3,2
  2893     0659  2E5B               	goto	u4781
  2894     065A  2E5C               	goto	u4780
  2895     065B                     u4781:
  2896     065B  2E65               	goto	l3482
  2897     065C                     u4780:
  2898     065C                     l3478:
  2899     065C  3000               	movlw	0
  2900     065D  00A3               	movwf	?___fldiv+3
  2901     065E  3000               	movlw	0
  2902     065F  00A2               	movwf	?___fldiv+2
  2903     0660  3000               	movlw	0
  2904     0661  00A1               	movwf	?___fldiv+1
  2905     0662  3000               	movlw	0
  2906     0663  00A0               	movwf	?___fldiv
  2907     0664  2FAE               	goto	l657
  2908     0665                     l3482:
  2909     0665  0838               	movf	___fldiv@bexp,w
  2910     0666  00A8               	movwf	??___fldiv
  2911     0667  01A9               	clrf	??___fldiv+1
  2912     0668  0829               	movf	??___fldiv+1,w
  2913     0669  00AB               	movwf	??___fldiv+3
  2914     066A  0839               	movf	___fldiv@aexp,w
  2915     066B  0228               	subwf	??___fldiv,w
  2916     066C  00AA               	movwf	??___fldiv+2
  2917     066D  1C03               	skipc
  2918     066E  03AB               	decf	??___fldiv+3,f
  2919     066F  082A               	movf	??___fldiv+2,w
  2920     0670  3E7F               	addlw	127
  2921     0671  00B2               	movwf	___fldiv@new_exp
  2922     0672  082B               	movf	??___fldiv+3,w
  2923     0673  1803               	skipnc
  2924     0674  3E01               	addlw	1
  2925     0675  3E00               	addlw	0
  2926     0676  00B3               	movwf	___fldiv@new_exp+1
  2927     0677                     l3484:
  2928     0677  0827               	movf	___fldiv@b+3,w
  2929     0678  00B0               	movwf	___fldiv@rem+3
  2930     0679  0826               	movf	___fldiv@b+2,w
  2931     067A  00AF               	movwf	___fldiv@rem+2
  2932     067B  0825               	movf	___fldiv@b+1,w
  2933     067C  00AE               	movwf	___fldiv@rem+1
  2934     067D  0824               	movf	___fldiv@b,w
  2935     067E  00AD               	movwf	___fldiv@rem
  2936     067F                     l3486:
  2937     067F  3000               	movlw	0
  2938     0680  00A7               	movwf	___fldiv@b+3
  2939     0681  3000               	movlw	0
  2940     0682  00A6               	movwf	___fldiv@b+2
  2941     0683  3000               	movlw	0
  2942     0684  00A5               	movwf	___fldiv@b+1
  2943     0685  3000               	movlw	0
  2944     0686  00A4               	movwf	___fldiv@b
  2945     0687                     l3488:
  2946     0687  3000               	movlw	0
  2947     0688  00B7               	movwf	___fldiv@grs+3
  2948     0689  3000               	movlw	0
  2949     068A  00B6               	movwf	___fldiv@grs+2
  2950     068B  3000               	movlw	0
  2951     068C  00B5               	movwf	___fldiv@grs+1
  2952     068D  3000               	movlw	0
  2953     068E  00B4               	movwf	___fldiv@grs
  2954     068F                     l3490:
  2955     068F  01B9               	clrf	___fldiv@aexp
  2956     0690  2EDB               	goto	l3510
  2957     0691                     l3492:
  2958     0691  0839               	movf	___fldiv@aexp,w
  2959     0692  1903               	btfsc	3,2
  2960     0693  2E95               	goto	u4791
  2961     0694  2E96               	goto	u4790
  2962     0695                     u4791:
  2963     0695  2EB6               	goto	l3502
  2964     0696                     u4790:
  2965     0696                     l3494:
  2966     0696  3001               	movlw	1
  2967     0697  00A8               	movwf	??___fldiv
  2968     0698                     u4805:
  2969     0698  1003               	clrc
  2970     0699  0DAD               	rlf	___fldiv@rem,f
  2971     069A  0DAE               	rlf	___fldiv@rem+1,f
  2972     069B  0DAF               	rlf	___fldiv@rem+2,f
  2973     069C  0DB0               	rlf	___fldiv@rem+3,f
  2974     069D  0BA8               	decfsz	??___fldiv,f
  2975     069E  2E98               	goto	u4805
  2976     069F  3001               	movlw	1
  2977     06A0  00A8               	movwf	??___fldiv
  2978     06A1                     u4815:
  2979     06A1  1003               	clrc
  2980     06A2  0DA4               	rlf	___fldiv@b,f
  2981     06A3  0DA5               	rlf	___fldiv@b+1,f
  2982     06A4  0DA6               	rlf	___fldiv@b+2,f
  2983     06A5  0DA7               	rlf	___fldiv@b+3,f
  2984     06A6  0BA8               	decfsz	??___fldiv,f
  2985     06A7  2EA1               	goto	u4815
  2986     06A8                     l3496:
  2987     06A8  1FB7               	btfss	___fldiv@grs+3,7
  2988     06A9  2EAB               	goto	u4821
  2989     06AA  2EAC               	goto	u4820
  2990     06AB                     u4821:
  2991     06AB  2EAD               	goto	l3500
  2992     06AC                     u4820:
  2993     06AC                     l3498:
  2994     06AC  1424               	bsf	___fldiv@b,0
  2995     06AD                     l3500:
  2996     06AD  3001               	movlw	1
  2997     06AE  00A8               	movwf	??___fldiv
  2998     06AF                     u4835:
  2999     06AF  1003               	clrc
  3000     06B0  0DB4               	rlf	___fldiv@grs,f
  3001     06B1  0DB5               	rlf	___fldiv@grs+1,f
  3002     06B2  0DB6               	rlf	___fldiv@grs+2,f
  3003     06B3  0DB7               	rlf	___fldiv@grs+3,f
  3004     06B4  0BA8               	decfsz	??___fldiv,f
  3005     06B5  2EAF               	goto	u4835
  3006     06B6                     l3502:
  3007     06B6  0823               	movf	___fldiv@a+3,w
  3008     06B7  0230               	subwf	___fldiv@rem+3,w
  3009     06B8  1D03               	skipz
  3010     06B9  2EC4               	goto	u4845
  3011     06BA  0822               	movf	___fldiv@a+2,w
  3012     06BB  022F               	subwf	___fldiv@rem+2,w
  3013     06BC  1D03               	skipz
  3014     06BD  2EC4               	goto	u4845
  3015     06BE  0821               	movf	___fldiv@a+1,w
  3016     06BF  022E               	subwf	___fldiv@rem+1,w
  3017     06C0  1D03               	skipz
  3018     06C1  2EC4               	goto	u4845
  3019     06C2  0820               	movf	___fldiv@a,w
  3020     06C3  022D               	subwf	___fldiv@rem,w
  3021     06C4                     u4845:
  3022     06C4  1C03               	skipc
  3023     06C5  2EC7               	goto	u4841
  3024     06C6  2EC8               	goto	u4840
  3025     06C7                     u4841:
  3026     06C7  2ED7               	goto	l3508
  3027     06C8                     u4840:
  3028     06C8                     l3504:
  3029     06C8  1737               	bsf	___fldiv@grs+3,6
  3030     06C9                     l3506:
  3031     06C9  0820               	movf	___fldiv@a,w
  3032     06CA  02AD               	subwf	___fldiv@rem,f
  3033     06CB  0821               	movf	___fldiv@a+1,w
  3034     06CC  1C03               	skipc
  3035     06CD  0F21               	incfsz	___fldiv@a+1,w
  3036     06CE  02AE               	subwf	___fldiv@rem+1,f
  3037     06CF  0822               	movf	___fldiv@a+2,w
  3038     06D0  1C03               	skipc
  3039     06D1  0F22               	incfsz	___fldiv@a+2,w
  3040     06D2  02AF               	subwf	___fldiv@rem+2,f
  3041     06D3  0823               	movf	___fldiv@a+3,w
  3042     06D4  1C03               	skipc
  3043     06D5  0F23               	incfsz	___fldiv@a+3,w
  3044     06D6  02B0               	subwf	___fldiv@rem+3,f
  3045     06D7                     l3508:
  3046     06D7  3001               	movlw	1
  3047     06D8  00FF               	movwf	btemp+1
  3048     06D9  087F               	movf	btemp+1,w
  3049     06DA  07B9               	addwf	___fldiv@aexp,f
  3050     06DB                     l3510:
  3051     06DB  301A               	movlw	26
  3052     06DC  0239               	subwf	___fldiv@aexp,w
  3053     06DD  1C03               	skipc
  3054     06DE  2EE0               	goto	u4851
  3055     06DF  2EE1               	goto	u4850
  3056     06E0                     u4851:
  3057     06E0  2E91               	goto	l3492
  3058     06E1                     u4850:
  3059     06E1                     l3512:
  3060     06E1  0830               	movf	___fldiv@rem+3,w
  3061     06E2  042F               	iorwf	___fldiv@rem+2,w
  3062     06E3  042E               	iorwf	___fldiv@rem+1,w
  3063     06E4  042D               	iorwf	___fldiv@rem,w
  3064     06E5  1903               	skipnz
  3065     06E6  2EE8               	goto	u4861
  3066     06E7  2EE9               	goto	u4860
  3067     06E8                     u4861:
  3068     06E8  2F08               	goto	l3526
  3069     06E9                     u4860:
  3070     06E9                     l3514:
  3071     06E9  1434               	bsf	___fldiv@grs,0
  3072     06EA  2F08               	goto	l3526
  3073     06EB                     l3516:
  3074     06EB  3001               	movlw	1
  3075     06EC  00A8               	movwf	??___fldiv
  3076     06ED                     u4875:
  3077     06ED  1003               	clrc
  3078     06EE  0DA4               	rlf	___fldiv@b,f
  3079     06EF  0DA5               	rlf	___fldiv@b+1,f
  3080     06F0  0DA6               	rlf	___fldiv@b+2,f
  3081     06F1  0DA7               	rlf	___fldiv@b+3,f
  3082     06F2  0BA8               	decfsz	??___fldiv,f
  3083     06F3  2EED               	goto	u4875
  3084     06F4                     l3518:
  3085     06F4  1FB7               	btfss	___fldiv@grs+3,7
  3086     06F5  2EF7               	goto	u4881
  3087     06F6  2EF8               	goto	u4880
  3088     06F7                     u4881:
  3089     06F7  2EF9               	goto	l3522
  3090     06F8                     u4880:
  3091     06F8                     l3520:
  3092     06F8  1424               	bsf	___fldiv@b,0
  3093     06F9                     l3522:
  3094     06F9  3001               	movlw	1
  3095     06FA  00A8               	movwf	??___fldiv
  3096     06FB                     u4895:
  3097     06FB  1003               	clrc
  3098     06FC  0DB4               	rlf	___fldiv@grs,f
  3099     06FD  0DB5               	rlf	___fldiv@grs+1,f
  3100     06FE  0DB6               	rlf	___fldiv@grs+2,f
  3101     06FF  0DB7               	rlf	___fldiv@grs+3,f
  3102     0700  0BA8               	decfsz	??___fldiv,f
  3103     0701  2EFB               	goto	u4895
  3104     0702                     l3524:
  3105     0702  30FF               	movlw	255
  3106     0703  07B2               	addwf	___fldiv@new_exp,f
  3107     0704  1803               	skipnc
  3108     0705  0AB3               	incf	___fldiv@new_exp+1,f
  3109     0706  30FF               	movlw	255
  3110     0707  07B3               	addwf	___fldiv@new_exp+1,f
  3111     0708                     l3526:
  3112     0708  1FA6               	btfss	___fldiv@b+2,7
  3113     0709  2F0B               	goto	u4901
  3114     070A  2F0C               	goto	u4900
  3115     070B                     u4901:
  3116     070B  2EEB               	goto	l3516
  3117     070C                     u4900:
  3118     070C                     l3528:
  3119     070C  01B9               	clrf	___fldiv@aexp
  3120     070D                     l3530:
  3121     070D  1FB7               	btfss	___fldiv@grs+3,7
  3122     070E  2F10               	goto	u4911
  3123     070F  2F11               	goto	u4910
  3124     0710                     u4911:
  3125     0710  2F2D               	goto	l3538
  3126     0711                     u4910:
  3127     0711                     l3532:
  3128     0711  30FF               	movlw	255
  3129     0712  0534               	andwf	___fldiv@grs,w
  3130     0713  00A8               	movwf	??___fldiv
  3131     0714  30FF               	movlw	255
  3132     0715  0535               	andwf	___fldiv@grs+1,w
  3133     0716  00A9               	movwf	??___fldiv+1
  3134     0717  30FF               	movlw	255
  3135     0718  0536               	andwf	___fldiv@grs+2,w
  3136     0719  00AA               	movwf	??___fldiv+2
  3137     071A  307F               	movlw	127
  3138     071B  0537               	andwf	___fldiv@grs+3,w
  3139     071C  00AB               	movwf	??___fldiv+3
  3140     071D  082B               	movf	??___fldiv+3,w
  3141     071E  042A               	iorwf	??___fldiv+2,w
  3142     071F  0429               	iorwf	??___fldiv+1,w
  3143     0720  0428               	iorwf	??___fldiv,w
  3144     0721  1903               	skipnz
  3145     0722  2F24               	goto	u4921
  3146     0723  2F25               	goto	u4920
  3147     0724                     u4921:
  3148     0724  2F28               	goto	l671
  3149     0725                     u4920:
  3150     0725                     l3534:
  3151     0725  01B9               	clrf	___fldiv@aexp
  3152     0726  0AB9               	incf	___fldiv@aexp,f
  3153     0727  2F2D               	goto	l3538
  3154     0728                     l671:
  3155     0728  1C24               	btfss	___fldiv@b,0
  3156     0729  2F2B               	goto	u4931
  3157     072A  2F2C               	goto	u4930
  3158     072B                     u4931:
  3159     072B  2F2D               	goto	l3538
  3160     072C                     u4930:
  3161     072C  2F25               	goto	l3534
  3162     072D                     l3538:
  3163     072D  0839               	movf	___fldiv@aexp,w
  3164     072E  1903               	btfsc	3,2
  3165     072F  2F31               	goto	u4941
  3166     0730  2F32               	goto	u4940
  3167     0731                     u4941:
  3168     0731  2F63               	goto	l3548
  3169     0732                     u4940:
  3170     0732                     l3540:
  3171     0732  3001               	movlw	1
  3172     0733  07A4               	addwf	___fldiv@b,f
  3173     0734  3000               	movlw	0
  3174     0735  1803               	skipnc
  3175     0736  3001               	movlw	1
  3176     0737  07A5               	addwf	___fldiv@b+1,f
  3177     0738  3000               	movlw	0
  3178     0739  1803               	skipnc
  3179     073A  3001               	movlw	1
  3180     073B  07A6               	addwf	___fldiv@b+2,f
  3181     073C  3000               	movlw	0
  3182     073D  1803               	skipnc
  3183     073E  3001               	movlw	1
  3184     073F  07A7               	addwf	___fldiv@b+3,f
  3185     0740                     l3542:
  3186     0740  1C27               	btfss	___fldiv@b+3,0
  3187     0741  2F43               	goto	u4951
  3188     0742  2F44               	goto	u4950
  3189     0743                     u4951:
  3190     0743  2F63               	goto	l3548
  3191     0744                     u4950:
  3192     0744                     l3544:
  3193     0744  0824               	movf	___fldiv@b,w
  3194     0745  00A8               	movwf	??___fldiv
  3195     0746  0825               	movf	___fldiv@b+1,w
  3196     0747  00A9               	movwf	??___fldiv+1
  3197     0748  0826               	movf	___fldiv@b+2,w
  3198     0749  00AA               	movwf	??___fldiv+2
  3199     074A  0827               	movf	___fldiv@b+3,w
  3200     074B  00AB               	movwf	??___fldiv+3
  3201     074C  3001               	movlw	1
  3202     074D  00AC               	movwf	??___fldiv+4
  3203     074E                     u4965:
  3204     074E  0D2B               	rlf	??___fldiv+3,w
  3205     074F  0CAB               	rrf	??___fldiv+3,f
  3206     0750  0CAA               	rrf	??___fldiv+2,f
  3207     0751  0CA9               	rrf	??___fldiv+1,f
  3208     0752  0CA8               	rrf	??___fldiv,f
  3209     0753                     u4960:
  3210     0753  0BAC               	decfsz	??___fldiv+4,f
  3211     0754  2F4E               	goto	u4965
  3212     0755  082B               	movf	??___fldiv+3,w
  3213     0756  00A7               	movwf	___fldiv@b+3
  3214     0757  082A               	movf	??___fldiv+2,w
  3215     0758  00A6               	movwf	___fldiv@b+2
  3216     0759  0829               	movf	??___fldiv+1,w
  3217     075A  00A5               	movwf	___fldiv@b+1
  3218     075B  0828               	movf	??___fldiv,w
  3219     075C  00A4               	movwf	___fldiv@b
  3220     075D                     l3546:
  3221     075D  3001               	movlw	1
  3222     075E  07B2               	addwf	___fldiv@new_exp,f
  3223     075F  1803               	skipnc
  3224     0760  0AB3               	incf	___fldiv@new_exp+1,f
  3225     0761  3000               	movlw	0
  3226     0762  07B3               	addwf	___fldiv@new_exp+1,f
  3227     0763                     l3548:
  3228     0763  0833               	movf	___fldiv@new_exp+1,w
  3229     0764  3A80               	xorlw	128
  3230     0765  00FF               	movwf	btemp+1
  3231     0766  3080               	movlw	128
  3232     0767  027F               	subwf	btemp+1,w
  3233     0768  1D03               	skipz
  3234     0769  2F6C               	goto	u4975
  3235     076A  30FF               	movlw	255
  3236     076B  0232               	subwf	___fldiv@new_exp,w
  3237     076C                     u4975:
  3238     076C  1C03               	skipc
  3239     076D  2F6F               	goto	u4971
  3240     076E  2F70               	goto	u4970
  3241     076F                     u4971:
  3242     076F  2F7E               	goto	l3552
  3243     0770                     u4970:
  3244     0770                     l3550:
  3245     0770  30FF               	movlw	255
  3246     0771  1283               	bcf	3,5	;RP0=0, select bank0
  3247     0772  1303               	bcf	3,6	;RP1=0, select bank0
  3248     0773  00B2               	movwf	___fldiv@new_exp
  3249     0774  3000               	movlw	0
  3250     0775  00B3               	movwf	___fldiv@new_exp+1
  3251     0776  3000               	movlw	0
  3252     0777  00A7               	movwf	___fldiv@b+3
  3253     0778  3000               	movlw	0
  3254     0779  00A6               	movwf	___fldiv@b+2
  3255     077A  3000               	movlw	0
  3256     077B  00A5               	movwf	___fldiv@b+1
  3257     077C  3000               	movlw	0
  3258     077D  00A4               	movwf	___fldiv@b
  3259     077E                     l3552:
  3260     077E  1283               	bcf	3,5	;RP0=0, select bank0
  3261     077F  1303               	bcf	3,6	;RP1=0, select bank0
  3262     0780  0833               	movf	___fldiv@new_exp+1,w
  3263     0781  3A80               	xorlw	128
  3264     0782  00FF               	movwf	btemp+1
  3265     0783  3080               	movlw	128
  3266     0784  027F               	subwf	btemp+1,w
  3267     0785  1D03               	skipz
  3268     0786  2F89               	goto	u4985
  3269     0787  3001               	movlw	1
  3270     0788  0232               	subwf	___fldiv@new_exp,w
  3271     0789                     u4985:
  3272     0789  1803               	skipnc
  3273     078A  2F8C               	goto	u4981
  3274     078B  2F8D               	goto	u4980
  3275     078C                     u4981:
  3276     078C  2F9A               	goto	l677
  3277     078D                     u4980:
  3278     078D                     l3554:
  3279     078D  1283               	bcf	3,5	;RP0=0, select bank0
  3280     078E  1303               	bcf	3,6	;RP1=0, select bank0
  3281     078F  01B2               	clrf	___fldiv@new_exp
  3282     0790  01B3               	clrf	___fldiv@new_exp+1
  3283     0791                     l3556:
  3284     0791  3000               	movlw	0
  3285     0792  00A7               	movwf	___fldiv@b+3
  3286     0793  3000               	movlw	0
  3287     0794  00A6               	movwf	___fldiv@b+2
  3288     0795  3000               	movlw	0
  3289     0796  00A5               	movwf	___fldiv@b+1
  3290     0797  3000               	movlw	0
  3291     0798  00A4               	movwf	___fldiv@b
  3292     0799                     l3558:
  3293     0799  01B1               	clrf	___fldiv@sign
  3294     079A                     l677:
  3295     079A  1283               	bcf	3,5	;RP0=0, select bank0
  3296     079B  1303               	bcf	3,6	;RP1=0, select bank0
  3297     079C  0832               	movf	___fldiv@new_exp,w
  3298     079D  00B8               	movwf	___fldiv@bexp
  3299     079E                     l3560:
  3300     079E  1C38               	btfss	___fldiv@bexp,0
  3301     079F  2FA1               	goto	u4991
  3302     07A0  2FA2               	goto	u4990
  3303     07A1                     u4991:
  3304     07A1  2FA4               	goto	l3564
  3305     07A2                     u4990:
  3306     07A2                     l3562:
  3307     07A2  17A6               	bsf	___fldiv@b+2,7
  3308     07A3  2FA8               	goto	l3566
  3309     07A4                     l3564:
  3310     07A4  307F               	movlw	127
  3311     07A5  00FF               	movwf	btemp+1
  3312     07A6  087F               	movf	btemp+1,w
  3313     07A7  05A6               	andwf	___fldiv@b+2,f
  3314     07A8                     l3566:
  3315     07A8  0838               	movf	___fldiv@bexp,w
  3316     07A9  00A8               	movwf	??___fldiv
  3317     07AA  1003               	clrc
  3318     07AB  0C28               	rrf	??___fldiv,w
  3319     07AC  00A7               	movwf	___fldiv@b+3
  3320     07AD  2E4A               	goto	l3470
  3321     07AE                     l657:
  3322     07AE  0008               	return
  3323     07AF                     __end_of___fldiv:
  3324                           
  3325                           	psect	text5
  3326     149E                     __ptext5:	
  3327 ;; *************** function ___awmod *****************
  3328 ;; Defined at:
  3329 ;;		line 5 in file "C:\Program Files\Microchip\xc8\v2.41\pic\sources\c90\common\awmod.c"
  3330 ;; Parameters:    Size  Location     Type
  3331 ;;  divisor         2   36[BANK0 ] int 
  3332 ;;  dividend        2   38[BANK0 ] int 
  3333 ;; Auto vars:     Size  Location     Type
  3334 ;;  sign            1   41[BANK0 ] unsigned char 
  3335 ;;  counter         1   40[BANK0 ] unsigned char 
  3336 ;; Return value:  Size  Location     Type
  3337 ;;                  2   36[BANK0 ] int 
  3338 ;; Registers used:
  3339 ;;		wreg, status,2, status,0, btemp+1
  3340 ;; Tracked objects:
  3341 ;;		On entry : 0/0
  3342 ;;		On exit  : 0/0
  3343 ;;		Unchanged: 0/0
  3344 ;; Data sizes:     COMMON   BANK0   BANK1   BANK3   BANK2
  3345 ;;      Params:         0       4       0       0       0
  3346 ;;      Locals:         0       2       0       0       0
  3347 ;;      Temps:          0       0       0       0       0
  3348 ;;      Totals:         0       6       0       0       0
  3349 ;;Total ram usage:        6 bytes
  3350 ;; Hardware stack levels used: 1
  3351 ;; Hardware stack levels required when called: 1
  3352 ;; This function calls:
  3353 ;;		Nothing
  3354 ;; This function is called by:
  3355 ;;		_lecture_temperature_mes
  3356 ;; This function uses a non-reentrant model
  3357 ;;
  3358                           
  3359     149E                     ___awmod:	
  3360                           ;psect for function ___awmod
  3361                           
  3362     149E                     l3132:	
  3363                           ;incstack = 0
  3364                           ; Regs used in ___awmod: [wreg+status,2+status,0+btemp+1]
  3365                           
  3366     149E  1283               	bcf	3,5	;RP0=0, select bank0
  3367     149F  1303               	bcf	3,6	;RP1=0, select bank0
  3368     14A0  01C9               	clrf	___awmod@sign
  3369     14A1                     l3134:
  3370     14A1  1FC7               	btfss	___awmod@dividend+1,7
  3371     14A2  2CA4               	goto	u3991
  3372     14A3  2CA5               	goto	u3990
  3373     14A4                     u3991:
  3374     14A4  2CAC               	goto	l3140
  3375     14A5                     u3990:
  3376     14A5                     l3136:
  3377     14A5  09C6               	comf	___awmod@dividend,f
  3378     14A6  09C7               	comf	___awmod@dividend+1,f
  3379     14A7  0AC6               	incf	___awmod@dividend,f
  3380     14A8  1903               	skipnz
  3381     14A9  0AC7               	incf	___awmod@dividend+1,f
  3382     14AA                     l3138:
  3383     14AA  01C9               	clrf	___awmod@sign
  3384     14AB  0AC9               	incf	___awmod@sign,f
  3385     14AC                     l3140:
  3386     14AC  1FC5               	btfss	___awmod@divisor+1,7
  3387     14AD  2CAF               	goto	u4001
  3388     14AE  2CB0               	goto	u4000
  3389     14AF                     u4001:
  3390     14AF  2CB5               	goto	l3144
  3391     14B0                     u4000:
  3392     14B0                     l3142:
  3393     14B0  09C4               	comf	___awmod@divisor,f
  3394     14B1  09C5               	comf	___awmod@divisor+1,f
  3395     14B2  0AC4               	incf	___awmod@divisor,f
  3396     14B3  1903               	skipnz
  3397     14B4  0AC5               	incf	___awmod@divisor+1,f
  3398     14B5                     l3144:
  3399     14B5  0844               	movf	___awmod@divisor,w
  3400     14B6  0445               	iorwf	___awmod@divisor+1,w
  3401     14B7  1903               	btfsc	3,2
  3402     14B8  2CBA               	goto	u4011
  3403     14B9  2CBB               	goto	u4010
  3404     14BA                     u4011:
  3405     14BA  2CEA               	goto	l3162
  3406     14BB                     u4010:
  3407     14BB                     l3146:
  3408     14BB  01C8               	clrf	___awmod@counter
  3409     14BC  0AC8               	incf	___awmod@counter,f
  3410     14BD  2CC9               	goto	l3152
  3411     14BE                     l3148:
  3412     14BE  3001               	movlw	1
  3413     14BF                     u4025:
  3414     14BF  1003               	clrc
  3415     14C0  0DC4               	rlf	___awmod@divisor,f
  3416     14C1  0DC5               	rlf	___awmod@divisor+1,f
  3417     14C2  3EFF               	addlw	-1
  3418     14C3  1D03               	skipz
  3419     14C4  2CBF               	goto	u4025
  3420     14C5                     l3150:
  3421     14C5  3001               	movlw	1
  3422     14C6  00FF               	movwf	btemp+1
  3423     14C7  087F               	movf	btemp+1,w
  3424     14C8  07C8               	addwf	___awmod@counter,f
  3425     14C9                     l3152:
  3426     14C9  1FC5               	btfss	___awmod@divisor+1,7
  3427     14CA  2CCC               	goto	u4031
  3428     14CB  2CCD               	goto	u4030
  3429     14CC                     u4031:
  3430     14CC  2CBE               	goto	l3148
  3431     14CD                     u4030:
  3432     14CD                     l3154:
  3433     14CD  0845               	movf	___awmod@divisor+1,w
  3434     14CE  0247               	subwf	___awmod@dividend+1,w
  3435     14CF  1D03               	skipz
  3436     14D0  2CD3               	goto	u4045
  3437     14D1  0844               	movf	___awmod@divisor,w
  3438     14D2  0246               	subwf	___awmod@dividend,w
  3439     14D3                     u4045:
  3440     14D3  1C03               	skipc
  3441     14D4  2CD6               	goto	u4041
  3442     14D5  2CD7               	goto	u4040
  3443     14D6                     u4041:
  3444     14D6  2CDD               	goto	l3158
  3445     14D7                     u4040:
  3446     14D7                     l3156:
  3447     14D7  0844               	movf	___awmod@divisor,w
  3448     14D8  02C6               	subwf	___awmod@dividend,f
  3449     14D9  0845               	movf	___awmod@divisor+1,w
  3450     14DA  1C03               	skipc
  3451     14DB  03C7               	decf	___awmod@dividend+1,f
  3452     14DC  02C7               	subwf	___awmod@dividend+1,f
  3453     14DD                     l3158:
  3454     14DD  3001               	movlw	1
  3455     14DE                     u4055:
  3456     14DE  1003               	clrc
  3457     14DF  0CC5               	rrf	___awmod@divisor+1,f
  3458     14E0  0CC4               	rrf	___awmod@divisor,f
  3459     14E1  3EFF               	addlw	-1
  3460     14E2  1D03               	skipz
  3461     14E3  2CDE               	goto	u4055
  3462     14E4                     l3160:
  3463     14E4  3001               	movlw	1
  3464     14E5  02C8               	subwf	___awmod@counter,f
  3465     14E6  1D03               	btfss	3,2
  3466     14E7  2CE9               	goto	u4061
  3467     14E8  2CEA               	goto	u4060
  3468     14E9                     u4061:
  3469     14E9  2CCD               	goto	l3154
  3470     14EA                     u4060:
  3471     14EA                     l3162:
  3472     14EA  0849               	movf	___awmod@sign,w
  3473     14EB  1903               	btfsc	3,2
  3474     14EC  2CEE               	goto	u4071
  3475     14ED  2CEF               	goto	u4070
  3476     14EE                     u4071:
  3477     14EE  2CF4               	goto	l3166
  3478     14EF                     u4070:
  3479     14EF                     l3164:
  3480     14EF  09C6               	comf	___awmod@dividend,f
  3481     14F0  09C7               	comf	___awmod@dividend+1,f
  3482     14F1  0AC6               	incf	___awmod@dividend,f
  3483     14F2  1903               	skipnz
  3484     14F3  0AC7               	incf	___awmod@dividend+1,f
  3485     14F4                     l3166:
  3486     14F4  0847               	movf	___awmod@dividend+1,w
  3487     14F5  00C5               	movwf	?___awmod+1
  3488     14F6  0846               	movf	___awmod@dividend,w
  3489     14F7  00C4               	movwf	?___awmod
  3490     14F8                     l472:
  3491     14F8  0008               	return
  3492     14F9                     __end_of___awmod:
  3493                           
  3494                           	psect	text6
  3495     1615                     __ptext6:	
  3496 ;; *************** function _hysterisis *****************
  3497 ;; Defined at:
  3498 ;;		line 343 in file "cont.c"
  3499 ;; Parameters:    Size  Location     Type
  3500 ;;  R               4   32[BANK0 ] float 
  3501 ;;  M               4   36[BANK0 ] float 
  3502 ;; Auto vars:     Size  Location     Type
  3503 ;;		None
  3504 ;; Return value:  Size  Location     Type
  3505 ;;                  1    wreg      void 
  3506 ;; Registers used:
  3507 ;;		wreg, status,2, status,0, btemp+1, pclath, cstack
  3508 ;; Tracked objects:
  3509 ;;		On entry : 0/0
  3510 ;;		On exit  : 0/0
  3511 ;;		Unchanged: 0/0
  3512 ;; Data sizes:     COMMON   BANK0   BANK1   BANK3   BANK2
  3513 ;;      Params:         0       8       0       0       0
  3514 ;;      Locals:         0       0       0       0       0
  3515 ;;      Temps:          0       3       0       0       0
  3516 ;;      Totals:         0      11       0       0       0
  3517 ;;Total ram usage:       11 bytes
  3518 ;; Hardware stack levels used: 1
  3519 ;; Hardware stack levels required when called: 2
  3520 ;; This function calls:
  3521 ;;		___fladd
  3522 ;;		___flge
  3523 ;;		_turnCoolingOff
  3524 ;;		_turnCoolingOn
  3525 ;;		_turnHeatingOff
  3526 ;;		_turnHeatingOn
  3527 ;; This function is called by:
  3528 ;;		_main
  3529 ;; This function uses a non-reentrant model
  3530 ;;
  3531                           
  3532     1615                     _hysterisis:	
  3533                           ;psect for function _hysterisis
  3534                           
  3535     1615                     l4056:	
  3536                           ;incstack = 0
  3537                           ; Regs used in _hysterisis: [wreg+status,2+status,0+btemp+1+pclath+cstack]
  3538                           
  3539                           
  3540                           ;cont.c: 343: void hysterisis(float R,float M);cont.c: 344: {;cont.c: 345:     if (M <= 
      +                          (R - 2))
  3541     1615  30C0               	movlw	192
  3542     1616  1283               	bcf	3,5	;RP0=0, select bank0
  3543     1617  1303               	bcf	3,6	;RP1=0, select bank0
  3544     1618  00A3               	movwf	___fladd@b+3
  3545     1619  3000               	movlw	0
  3546     161A  00A2               	movwf	___fladd@b+2
  3547     161B  3000               	movlw	0
  3548     161C  00A1               	movwf	___fladd@b+1
  3549     161D  3000               	movlw	0
  3550     161E  00A0               	movwf	___fladd@b
  3551     161F  0843               	movf	hysterisis@R+3,w
  3552     1620  00A7               	movwf	___fladd@a+3
  3553     1621  0842               	movf	hysterisis@R+2,w
  3554     1622  00A6               	movwf	___fladd@a+2
  3555     1623  0841               	movf	hysterisis@R+1,w
  3556     1624  00A5               	movwf	___fladd@a+1
  3557     1625  0840               	movf	hysterisis@R,w
  3558     1626  00A4               	movwf	___fladd@a
  3559     1627  120A  158A  2263  160A  118A  	fcall	___fladd
  3560     162C  1283               	bcf	3,5	;RP0=0, select bank0
  3561     162D  1303               	bcf	3,6	;RP1=0, select bank0
  3562     162E  0823               	movf	?___fladd+3,w
  3563     162F  00B7               	movwf	___flge@ff1+3
  3564     1630  0822               	movf	?___fladd+2,w
  3565     1631  00B6               	movwf	___flge@ff1+2
  3566     1632  0821               	movf	?___fladd+1,w
  3567     1633  00B5               	movwf	___flge@ff1+1
  3568     1634  0820               	movf	?___fladd,w
  3569     1635  00B4               	movwf	___flge@ff1
  3570     1636  0847               	movf	hysterisis@M+3,w
  3571     1637  00BB               	movwf	___flge@ff2+3
  3572     1638  0846               	movf	hysterisis@M+2,w
  3573     1639  00BA               	movwf	___flge@ff2+2
  3574     163A  0845               	movf	hysterisis@M+1,w
  3575     163B  00B9               	movwf	___flge@ff2+1
  3576     163C  0844               	movf	hysterisis@M,w
  3577     163D  00B8               	movwf	___flge@ff2
  3578     163E  160A  118A  2571  160A  118A  	fcall	___flge
  3579     1643  1C03               	btfss	3,0
  3580     1644  2E46               	goto	u5771
  3581     1645  2E47               	goto	u5770
  3582     1646                     u5771:
  3583     1646  2E52               	goto	l4062
  3584     1647                     u5770:
  3585     1647                     l4058:
  3586                           
  3587                           ;cont.c: 346:         {;cont.c: 347:             heating = 1;
  3588     1647  3001               	movlw	1
  3589     1648  1283               	bcf	3,5	;RP0=0, select bank0
  3590     1649  1303               	bcf	3,6	;RP1=0, select bank0
  3591     164A  00ED               	movwf	_heating
  3592     164B  3000               	movlw	0
  3593     164C  00EE               	movwf	_heating+1
  3594     164D                     l4060:
  3595                           
  3596                           ;cont.c: 348:             cooling = 0;
  3597     164D  1683               	bsf	3,5	;RP0=1, select bank1
  3598     164E  1303               	bcf	3,6	;RP1=0, select bank1
  3599     164F  01B8               	clrf	_cooling^(0+128)
  3600     1650  01B9               	clrf	(_cooling+1)^(0+128)
  3601                           
  3602                           ;cont.c: 350:         }
  3603     1651  2E8E               	goto	l4068
  3604     1652                     l4062:
  3605     1652  1283               	bcf	3,5	;RP0=0, select bank0
  3606     1653  1303               	bcf	3,6	;RP1=0, select bank0
  3607     1654  0847               	movf	hysterisis@M+3,w
  3608     1655  00B7               	movwf	___flge@ff1+3
  3609     1656  0846               	movf	hysterisis@M+2,w
  3610     1657  00B6               	movwf	___flge@ff1+2
  3611     1658  0845               	movf	hysterisis@M+1,w
  3612     1659  00B5               	movwf	___flge@ff1+1
  3613     165A  0844               	movf	hysterisis@M,w
  3614     165B  00B4               	movwf	___flge@ff1
  3615     165C  3040               	movlw	64
  3616     165D  00A3               	movwf	___fladd@b+3
  3617     165E  3000               	movlw	0
  3618     165F  00A2               	movwf	___fladd@b+2
  3619     1660  3000               	movlw	0
  3620     1661  00A1               	movwf	___fladd@b+1
  3621     1662  3000               	movlw	0
  3622     1663  00A0               	movwf	___fladd@b
  3623     1664  0843               	movf	hysterisis@R+3,w
  3624     1665  00A7               	movwf	___fladd@a+3
  3625     1666  0842               	movf	hysterisis@R+2,w
  3626     1667  00A6               	movwf	___fladd@a+2
  3627     1668  0841               	movf	hysterisis@R+1,w
  3628     1669  00A5               	movwf	___fladd@a+1
  3629     166A  0840               	movf	hysterisis@R,w
  3630     166B  00A4               	movwf	___fladd@a
  3631     166C  120A  158A  2263  160A  118A  	fcall	___fladd
  3632     1671  1283               	bcf	3,5	;RP0=0, select bank0
  3633     1672  1303               	bcf	3,6	;RP1=0, select bank0
  3634     1673  0823               	movf	?___fladd+3,w
  3635     1674  00BB               	movwf	___flge@ff2+3
  3636     1675  0822               	movf	?___fladd+2,w
  3637     1676  00BA               	movwf	___flge@ff2+2
  3638     1677  0821               	movf	?___fladd+1,w
  3639     1678  00B9               	movwf	___flge@ff2+1
  3640     1679  0820               	movf	?___fladd,w
  3641     167A  00B8               	movwf	___flge@ff2
  3642     167B  160A  118A  2571  160A  118A  	fcall	___flge
  3643     1680  1C03               	btfss	3,0
  3644     1681  2E83               	goto	u5781
  3645     1682  2E84               	goto	u5780
  3646     1683                     u5781:
  3647     1683  2E8E               	goto	l4068
  3648     1684                     u5780:
  3649     1684                     l4064:
  3650                           
  3651                           ;cont.c: 352:             heating = 0;
  3652     1684  1283               	bcf	3,5	;RP0=0, select bank0
  3653     1685  1303               	bcf	3,6	;RP1=0, select bank0
  3654     1686  01ED               	clrf	_heating
  3655     1687  01EE               	clrf	_heating+1
  3656     1688                     l4066:
  3657                           
  3658                           ;cont.c: 353:             cooling = 1;
  3659     1688  3001               	movlw	1
  3660     1689  1683               	bsf	3,5	;RP0=1, select bank1
  3661     168A  1303               	bcf	3,6	;RP1=0, select bank1
  3662     168B  00B8               	movwf	_cooling^(0+128)
  3663     168C  3000               	movlw	0
  3664     168D  00B9               	movwf	(_cooling^(0+128)+1)
  3665     168E                     l4068:
  3666                           
  3667                           ;cont.c: 358:         if (heating)
  3668     168E  1283               	bcf	3,5	;RP0=0, select bank0
  3669     168F  1303               	bcf	3,6	;RP1=0, select bank0
  3670     1690  086D               	movf	_heating,w
  3671     1691  046E               	iorwf	_heating+1,w
  3672     1692  1903               	btfsc	3,2
  3673     1693  2E95               	goto	u5791
  3674     1694  2E96               	goto	u5790
  3675     1695                     u5791:
  3676     1695  2E9C               	goto	l4072
  3677     1696                     u5790:
  3678     1696                     l4070:
  3679                           
  3680                           ;cont.c: 359:         {;cont.c: 360:         turnHeatingOn();
  3681     1696  120A  118A  27FC  160A  118A  	fcall	_turnHeatingOn
  3682                           
  3683                           ;cont.c: 362:         }
  3684     169B  2EA1               	goto	l4074
  3685     169C                     l4072:
  3686                           
  3687                           ;cont.c: 364:         {;cont.c: 365:         turnHeatingOff();
  3688     169C  120A  158A  2002  160A  118A  	fcall	_turnHeatingOff
  3689     16A1                     l4074:
  3690                           
  3691                           ;cont.c: 368:         if (cooling)
  3692     16A1  1683               	bsf	3,5	;RP0=1, select bank1
  3693     16A2  1303               	bcf	3,6	;RP1=0, select bank1
  3694     16A3  0838               	movf	_cooling^(0+128),w
  3695     16A4  0439               	iorwf	(_cooling+1)^(0+128),w
  3696     16A5  1903               	btfsc	3,2
  3697     16A6  2EA8               	goto	u5801
  3698     16A7  2EA9               	goto	u5800
  3699     16A8                     u5801:
  3700     16A8  2EAF               	goto	l4078
  3701     16A9                     u5800:
  3702     16A9                     l4076:
  3703                           
  3704                           ;cont.c: 369:         {;cont.c: 370:         turnCoolingOn();
  3705     16A9  160A  118A  235F  160A  118A  	fcall	_turnCoolingOn
  3706                           
  3707                           ;cont.c: 371:         }
  3708     16AE  2EB4               	goto	l4080
  3709     16AF                     l4078:
  3710                           
  3711                           ;cont.c: 373:         {;cont.c: 374:          turnCoolingOff();
  3712     16AF  160A  118A  235B  160A  118A  	fcall	_turnCoolingOff
  3713     16B4                     l4080:
  3714                           
  3715                           ;cont.c: 377:   _delay((unsigned long)((50)*(20000000/4000.0)));
  3716     16B4  3002               	movlw	2
  3717     16B5  1283               	bcf	3,5	;RP0=0, select bank0
  3718     16B6  1303               	bcf	3,6	;RP1=0, select bank0
  3719     16B7  00CA               	movwf	??_hysterisis+2
  3720     16B8  3045               	movlw	69
  3721     16B9  00C9               	movwf	??_hysterisis+1
  3722     16BA  30A9               	movlw	169
  3723     16BB  00C8               	movwf	??_hysterisis
  3724     16BC                     u5847:
  3725     16BC  0BC8               	decfsz	??_hysterisis,f
  3726     16BD  2EBC               	goto	u5847
  3727     16BE  0BC9               	decfsz	??_hysterisis+1,f
  3728     16BF  2EBC               	goto	u5847
  3729     16C0  0BCA               	decfsz	??_hysterisis+2,f
  3730     16C1  2EBC               	goto	u5847
  3731     16C2                     l207:
  3732     16C2  0008               	return
  3733     16C3                     __end_of_hysterisis:
  3734                           
  3735                           	psect	text7
  3736     07FC                     __ptext7:	
  3737 ;; *************** function _turnHeatingOn *****************
  3738 ;; Defined at:
  3739 ;;		line 48 in file "cont.c"
  3740 ;; Parameters:    Size  Location     Type
  3741 ;;		None
  3742 ;; Auto vars:     Size  Location     Type
  3743 ;;		None
  3744 ;; Return value:  Size  Location     Type
  3745 ;;                  1    wreg      void 
  3746 ;; Registers used:
  3747 ;;		None
  3748 ;; Tracked objects:
  3749 ;;		On entry : 0/0
  3750 ;;		On exit  : 0/0
  3751 ;;		Unchanged: 0/0
  3752 ;; Data sizes:     COMMON   BANK0   BANK1   BANK3   BANK2
  3753 ;;      Params:         0       0       0       0       0
  3754 ;;      Locals:         0       0       0       0       0
  3755 ;;      Temps:          0       0       0       0       0
  3756 ;;      Totals:         0       0       0       0       0
  3757 ;;Total ram usage:        0 bytes
  3758 ;; Hardware stack levels used: 1
  3759 ;; Hardware stack levels required when called: 1
  3760 ;; This function calls:
  3761 ;;		Nothing
  3762 ;; This function is called by:
  3763 ;;		_hysterisis
  3764 ;; This function uses a non-reentrant model
  3765 ;;
  3766                           
  3767     07FC                     _turnHeatingOn:	
  3768                           ;psect for function _turnHeatingOn
  3769                           
  3770     07FC                     l3070:	
  3771                           ;incstack = 0
  3772                           ; Regs used in _turnHeatingOn: []
  3773                           
  3774                           
  3775                           ;cont.c: 49:  PORTEbits.RE0=1;
  3776     07FC  1283               	bcf	3,5	;RP0=0, select bank0
  3777     07FD  1303               	bcf	3,6	;RP1=0, select bank0
  3778     07FE  1409               	bsf	9,0	;volatile
  3779     07FF                     l100:
  3780     07FF  0008               	return
  3781     0800                     __end_of_turnHeatingOn:
  3782                           
  3783                           	psect	text8
  3784     0802                     __ptext8:	
  3785 ;; *************** function _turnHeatingOff *****************
  3786 ;; Defined at:
  3787 ;;		line 52 in file "cont.c"
  3788 ;; Parameters:    Size  Location     Type
  3789 ;;		None
  3790 ;; Auto vars:     Size  Location     Type
  3791 ;;		None
  3792 ;; Return value:  Size  Location     Type
  3793 ;;                  1    wreg      void 
  3794 ;; Registers used:
  3795 ;;		None
  3796 ;; Tracked objects:
  3797 ;;		On entry : 0/0
  3798 ;;		On exit  : 0/0
  3799 ;;		Unchanged: 0/0
  3800 ;; Data sizes:     COMMON   BANK0   BANK1   BANK3   BANK2
  3801 ;;      Params:         0       0       0       0       0
  3802 ;;      Locals:         0       0       0       0       0
  3803 ;;      Temps:          0       0       0       0       0
  3804 ;;      Totals:         0       0       0       0       0
  3805 ;;Total ram usage:        0 bytes
  3806 ;; Hardware stack levels used: 1
  3807 ;; Hardware stack levels required when called: 1
  3808 ;; This function calls:
  3809 ;;		Nothing
  3810 ;; This function is called by:
  3811 ;;		_hysterisis
  3812 ;; This function uses a non-reentrant model
  3813 ;;
  3814                           
  3815     0802                     _turnHeatingOff:	
  3816                           ;psect for function _turnHeatingOff
  3817                           
  3818     0802                     l3072:	
  3819                           ;incstack = 0
  3820                           ; Regs used in _turnHeatingOff: []
  3821                           
  3822                           
  3823                           ;cont.c: 53:   PORTEbits.RE0=0;
  3824     0802  1283               	bcf	3,5	;RP0=0, select bank0
  3825     0803  1303               	bcf	3,6	;RP1=0, select bank0
  3826     0804  1009               	bcf	9,0	;volatile
  3827     0805                     l103:
  3828     0805  0008               	return
  3829     0806                     __end_of_turnHeatingOff:
  3830                           
  3831                           	psect	text9
  3832     135F                     __ptext9:	
  3833 ;; *************** function _turnCoolingOn *****************
  3834 ;; Defined at:
  3835 ;;		line 56 in file "cont.c"
  3836 ;; Parameters:    Size  Location     Type
  3837 ;;		None
  3838 ;; Auto vars:     Size  Location     Type
  3839 ;;		None
  3840 ;; Return value:  Size  Location     Type
  3841 ;;                  1    wreg      void 
  3842 ;; Registers used:
  3843 ;;		None
  3844 ;; Tracked objects:
  3845 ;;		On entry : 0/0
  3846 ;;		On exit  : 0/0
  3847 ;;		Unchanged: 0/0
  3848 ;; Data sizes:     COMMON   BANK0   BANK1   BANK3   BANK2
  3849 ;;      Params:         0       0       0       0       0
  3850 ;;      Locals:         0       0       0       0       0
  3851 ;;      Temps:          0       0       0       0       0
  3852 ;;      Totals:         0       0       0       0       0
  3853 ;;Total ram usage:        0 bytes
  3854 ;; Hardware stack levels used: 1
  3855 ;; Hardware stack levels required when called: 1
  3856 ;; This function calls:
  3857 ;;		Nothing
  3858 ;; This function is called by:
  3859 ;;		_hysterisis
  3860 ;; This function uses a non-reentrant model
  3861 ;;
  3862                           
  3863     135F                     _turnCoolingOn:	
  3864                           ;psect for function _turnCoolingOn
  3865                           
  3866     135F                     l3074:	
  3867                           ;incstack = 0
  3868                           ; Regs used in _turnCoolingOn: []
  3869                           
  3870                           
  3871                           ;cont.c: 57:  PORTEbits.RE1=1;
  3872     135F  1283               	bcf	3,5	;RP0=0, select bank0
  3873     1360  1303               	bcf	3,6	;RP1=0, select bank0
  3874     1361  1489               	bsf	9,1	;volatile
  3875     1362                     l106:
  3876     1362  0008               	return
  3877     1363                     __end_of_turnCoolingOn:
  3878                           
  3879                           	psect	text10
  3880     135B                     __ptext10:	
  3881 ;; *************** function _turnCoolingOff *****************
  3882 ;; Defined at:
  3883 ;;		line 60 in file "cont.c"
  3884 ;; Parameters:    Size  Location     Type
  3885 ;;		None
  3886 ;; Auto vars:     Size  Location     Type
  3887 ;;		None
  3888 ;; Return value:  Size  Location     Type
  3889 ;;                  1    wreg      void 
  3890 ;; Registers used:
  3891 ;;		None
  3892 ;; Tracked objects:
  3893 ;;		On entry : 0/0
  3894 ;;		On exit  : 0/0
  3895 ;;		Unchanged: 0/0
  3896 ;; Data sizes:     COMMON   BANK0   BANK1   BANK3   BANK2
  3897 ;;      Params:         0       0       0       0       0
  3898 ;;      Locals:         0       0       0       0       0
  3899 ;;      Temps:          0       0       0       0       0
  3900 ;;      Totals:         0       0       0       0       0
  3901 ;;Total ram usage:        0 bytes
  3902 ;; Hardware stack levels used: 1
  3903 ;; Hardware stack levels required when called: 1
  3904 ;; This function calls:
  3905 ;;		Nothing
  3906 ;; This function is called by:
  3907 ;;		_hysterisis
  3908 ;; This function uses a non-reentrant model
  3909 ;;
  3910                           
  3911     135B                     _turnCoolingOff:	
  3912                           ;psect for function _turnCoolingOff
  3913                           
  3914     135B                     l3076:	
  3915                           ;incstack = 0
  3916                           ; Regs used in _turnCoolingOff: []
  3917                           
  3918                           
  3919                           ;cont.c: 61:  PORTEbits.RE1=0;
  3920     135B  1283               	bcf	3,5	;RP0=0, select bank0
  3921     135C  1303               	bcf	3,6	;RP1=0, select bank0
  3922     135D  1089               	bcf	9,1	;volatile
  3923     135E                     l109:
  3924     135E  0008               	return
  3925     135F                     __end_of_turnCoolingOff:
  3926                           
  3927                           	psect	text11
  3928     1571                     __ptext11:	
  3929 ;; *************** function ___flge *****************
  3930 ;; Defined at:
  3931 ;;		line 4 in file "C:\Program Files\Microchip\xc8\v2.41\pic\sources\c90\common\flge.c"
  3932 ;; Parameters:    Size  Location     Type
  3933 ;;  ff1             4   20[BANK0 ] void 
  3934 ;;  ff2             4   24[BANK0 ] void 
  3935 ;; Auto vars:     Size  Location     Type
  3936 ;;		None
  3937 ;; Return value:  Size  Location     Type
  3938 ;;		None               void
  3939 ;; Registers used:
  3940 ;;		wreg, status,2, status,0
  3941 ;; Tracked objects:
  3942 ;;		On entry : 0/0
  3943 ;;		On exit  : 0/0
  3944 ;;		Unchanged: 0/0
  3945 ;; Data sizes:     COMMON   BANK0   BANK1   BANK3   BANK2
  3946 ;;      Params:         0       8       0       0       0
  3947 ;;      Locals:         0       0       0       0       0
  3948 ;;      Temps:          0       4       0       0       0
  3949 ;;      Totals:         0      12       0       0       0
  3950 ;;Total ram usage:       12 bytes
  3951 ;; Hardware stack levels used: 1
  3952 ;; Hardware stack levels required when called: 1
  3953 ;; This function calls:
  3954 ;;		Nothing
  3955 ;; This function is called by:
  3956 ;;		_hysterisis
  3957 ;; This function uses a non-reentrant model
  3958 ;;
  3959                           
  3960     1571                     ___flge:	
  3961                           ;psect for function ___flge
  3962                           
  3963     1571                     l3170:	
  3964                           ;incstack = 0
  3965                           ; Regs used in ___flge: [wreg+status,2+status,0]
  3966                           
  3967     1571  3000               	movlw	0
  3968     1572  1283               	bcf	3,5	;RP0=0, select bank0
  3969     1573  1303               	bcf	3,6	;RP1=0, select bank0
  3970     1574  0534               	andwf	___flge@ff1,w
  3971     1575  00BC               	movwf	??___flge
  3972     1576  3000               	movlw	0
  3973     1577  0535               	andwf	___flge@ff1+1,w
  3974     1578  00BD               	movwf	??___flge+1
  3975     1579  3080               	movlw	128
  3976     157A  0536               	andwf	___flge@ff1+2,w
  3977     157B  00BE               	movwf	??___flge+2
  3978     157C  307F               	movlw	127
  3979     157D  0537               	andwf	___flge@ff1+3,w
  3980     157E  00BF               	movwf	??___flge+3
  3981     157F  083F               	movf	??___flge+3,w
  3982     1580  043E               	iorwf	??___flge+2,w
  3983     1581  043D               	iorwf	??___flge+1,w
  3984     1582  043C               	iorwf	??___flge,w
  3985     1583  1D03               	skipz
  3986     1584  2D86               	goto	u4081
  3987     1585  2D87               	goto	u4080
  3988     1586                     u4081:
  3989     1586  2D8F               	goto	l480
  3990     1587                     u4080:
  3991     1587                     l3172:
  3992     1587  3000               	movlw	0
  3993     1588  00B7               	movwf	___flge@ff1+3
  3994     1589  3000               	movlw	0
  3995     158A  00B6               	movwf	___flge@ff1+2
  3996     158B  3000               	movlw	0
  3997     158C  00B5               	movwf	___flge@ff1+1
  3998     158D  3000               	movlw	0
  3999     158E  00B4               	movwf	___flge@ff1
  4000     158F                     l480:
  4001     158F  3000               	movlw	0
  4002     1590  0538               	andwf	___flge@ff2,w
  4003     1591  00BC               	movwf	??___flge
  4004     1592  3000               	movlw	0
  4005     1593  0539               	andwf	___flge@ff2+1,w
  4006     1594  00BD               	movwf	??___flge+1
  4007     1595  3080               	movlw	128
  4008     1596  053A               	andwf	___flge@ff2+2,w
  4009     1597  00BE               	movwf	??___flge+2
  4010     1598  307F               	movlw	127
  4011     1599  053B               	andwf	___flge@ff2+3,w
  4012     159A  00BF               	movwf	??___flge+3
  4013     159B  083F               	movf	??___flge+3,w
  4014     159C  043E               	iorwf	??___flge+2,w
  4015     159D  043D               	iorwf	??___flge+1,w
  4016     159E  043C               	iorwf	??___flge,w
  4017     159F  1D03               	skipz
  4018     15A0  2DA2               	goto	u4091
  4019     15A1  2DA3               	goto	u4090
  4020     15A2                     u4091:
  4021     15A2  2DAB               	goto	l3176
  4022     15A3                     u4090:
  4023     15A3                     l3174:
  4024     15A3  3000               	movlw	0
  4025     15A4  00BB               	movwf	___flge@ff2+3
  4026     15A5  3000               	movlw	0
  4027     15A6  00BA               	movwf	___flge@ff2+2
  4028     15A7  3000               	movlw	0
  4029     15A8  00B9               	movwf	___flge@ff2+1
  4030     15A9  3000               	movlw	0
  4031     15AA  00B8               	movwf	___flge@ff2
  4032     15AB                     l3176:
  4033     15AB  1FB7               	btfss	___flge@ff1+3,7
  4034     15AC  2DAE               	goto	u4101
  4035     15AD  2DAF               	goto	u4100
  4036     15AE                     u4101:
  4037     15AE  2DD3               	goto	l3180
  4038     15AF                     u4100:
  4039     15AF                     l3178:
  4040     15AF  3000               	movlw	0
  4041     15B0  00BC               	movwf	??___flge
  4042     15B1  3000               	movlw	0
  4043     15B2  00BD               	movwf	??___flge+1
  4044     15B3  3000               	movlw	0
  4045     15B4  00BE               	movwf	??___flge+2
  4046     15B5  3080               	movlw	128
  4047     15B6  00BF               	movwf	??___flge+3
  4048     15B7  0834               	movf	___flge@ff1,w
  4049     15B8  02BC               	subwf	??___flge,f
  4050     15B9  0835               	movf	___flge@ff1+1,w
  4051     15BA  1C03               	skipc
  4052     15BB  0F35               	incfsz	___flge@ff1+1,w
  4053     15BC  2DBE               	goto	u4111
  4054     15BD  2DBF               	goto	u4112
  4055     15BE                     u4111:
  4056     15BE  02BD               	subwf	??___flge+1,f
  4057     15BF                     u4112:
  4058     15BF  0836               	movf	___flge@ff1+2,w
  4059     15C0  1C03               	skipc
  4060     15C1  0F36               	incfsz	___flge@ff1+2,w
  4061     15C2  2DC4               	goto	u4113
  4062     15C3  2DC5               	goto	u4114
  4063     15C4                     u4113:
  4064     15C4  02BE               	subwf	??___flge+2,f
  4065     15C5                     u4114:
  4066     15C5  0837               	movf	___flge@ff1+3,w
  4067     15C6  1C03               	skipc
  4068     15C7  0F37               	incfsz	___flge@ff1+3,w
  4069     15C8  2DCA               	goto	u4115
  4070     15C9  2DCB               	goto	u4116
  4071     15CA                     u4115:
  4072     15CA  02BF               	subwf	??___flge+3,f
  4073     15CB                     u4116:
  4074     15CB  083F               	movf	??___flge+3,w
  4075     15CC  00B7               	movwf	___flge@ff1+3
  4076     15CD  083E               	movf	??___flge+2,w
  4077     15CE  00B6               	movwf	___flge@ff1+2
  4078     15CF  083D               	movf	??___flge+1,w
  4079     15D0  00B5               	movwf	___flge@ff1+1
  4080     15D1  083C               	movf	??___flge,w
  4081     15D2  00B4               	movwf	___flge@ff1
  4082     15D3                     l3180:
  4083     15D3  1FBB               	btfss	___flge@ff2+3,7
  4084     15D4  2DD6               	goto	u4121
  4085     15D5  2DD7               	goto	u4120
  4086     15D6                     u4121:
  4087     15D6  2DFB               	goto	l483
  4088     15D7                     u4120:
  4089     15D7                     l3182:
  4090     15D7  3000               	movlw	0
  4091     15D8  00BC               	movwf	??___flge
  4092     15D9  3000               	movlw	0
  4093     15DA  00BD               	movwf	??___flge+1
  4094     15DB  3000               	movlw	0
  4095     15DC  00BE               	movwf	??___flge+2
  4096     15DD  3080               	movlw	128
  4097     15DE  00BF               	movwf	??___flge+3
  4098     15DF  0838               	movf	___flge@ff2,w
  4099     15E0  02BC               	subwf	??___flge,f
  4100     15E1  0839               	movf	___flge@ff2+1,w
  4101     15E2  1C03               	skipc
  4102     15E3  0F39               	incfsz	___flge@ff2+1,w
  4103     15E4  2DE6               	goto	u4131
  4104     15E5  2DE7               	goto	u4132
  4105     15E6                     u4131:
  4106     15E6  02BD               	subwf	??___flge+1,f
  4107     15E7                     u4132:
  4108     15E7  083A               	movf	___flge@ff2+2,w
  4109     15E8  1C03               	skipc
  4110     15E9  0F3A               	incfsz	___flge@ff2+2,w
  4111     15EA  2DEC               	goto	u4133
  4112     15EB  2DED               	goto	u4134
  4113     15EC                     u4133:
  4114     15EC  02BE               	subwf	??___flge+2,f
  4115     15ED                     u4134:
  4116     15ED  083B               	movf	___flge@ff2+3,w
  4117     15EE  1C03               	skipc
  4118     15EF  0F3B               	incfsz	___flge@ff2+3,w
  4119     15F0  2DF2               	goto	u4135
  4120     15F1  2DF3               	goto	u4136
  4121     15F2                     u4135:
  4122     15F2  02BF               	subwf	??___flge+3,f
  4123     15F3                     u4136:
  4124     15F3  083F               	movf	??___flge+3,w
  4125     15F4  00BB               	movwf	___flge@ff2+3
  4126     15F5  083E               	movf	??___flge+2,w
  4127     15F6  00BA               	movwf	___flge@ff2+2
  4128     15F7  083D               	movf	??___flge+1,w
  4129     15F8  00B9               	movwf	___flge@ff2+1
  4130     15F9  083C               	movf	??___flge,w
  4131     15FA  00B8               	movwf	___flge@ff2
  4132     15FB                     l483:
  4133     15FB  3080               	movlw	128
  4134     15FC  06B7               	xorwf	___flge@ff1+3,f
  4135     15FD  3080               	movlw	128
  4136     15FE  06BB               	xorwf	___flge@ff2+3,f
  4137     15FF  083B               	movf	___flge@ff2+3,w
  4138     1600  0237               	subwf	___flge@ff1+3,w
  4139     1601  1D03               	skipz
  4140     1602  2E0D               	goto	u4145
  4141     1603  083A               	movf	___flge@ff2+2,w
  4142     1604  0236               	subwf	___flge@ff1+2,w
  4143     1605  1D03               	skipz
  4144     1606  2E0D               	goto	u4145
  4145     1607  0839               	movf	___flge@ff2+1,w
  4146     1608  0235               	subwf	___flge@ff1+1,w
  4147     1609  1D03               	skipz
  4148     160A  2E0D               	goto	u4145
  4149     160B  0838               	movf	___flge@ff2,w
  4150     160C  0234               	subwf	___flge@ff1,w
  4151     160D                     u4145:
  4152     160D  1803               	skipnc
  4153     160E  2E10               	goto	u4141
  4154     160F  2E11               	goto	u4140
  4155     1610                     u4141:
  4156     1610  2E13               	goto	l3186
  4157     1611                     u4140:
  4158     1611                     l3184:
  4159     1611  1003               	clrc
  4160     1612  2E14               	goto	l484
  4161     1613                     l3186:
  4162     1613  1403               	setc
  4163     1614                     l484:
  4164     1614  0008               	return
  4165     1615                     __end_of___flge:
  4166                           
  4167                           	psect	text12
  4168     0A63                     __ptext12:	
  4169 ;; *************** function ___fladd *****************
  4170 ;; Defined at:
  4171 ;;		line 10 in file "C:\Program Files\Microchip\xc8\v2.41\pic\sources\c90\common\sprcadd.c"
  4172 ;; Parameters:    Size  Location     Type
  4173 ;;  b               4    0[BANK0 ] void 
  4174 ;;  a               4    4[BANK0 ] void 
  4175 ;; Auto vars:     Size  Location     Type
  4176 ;;  grs             1   19[BANK0 ] unsigned char 
  4177 ;;  bexp            1   18[BANK0 ] unsigned char 
  4178 ;;  aexp            1   17[BANK0 ] unsigned char 
  4179 ;;  signs           1   16[BANK0 ] unsigned char 
  4180 ;; Return value:  Size  Location     Type
  4181 ;;                  4    0[BANK0 ] unsigned char 
  4182 ;; Registers used:
  4183 ;;		wreg, status,2, status,0, btemp+1
  4184 ;; Tracked objects:
  4185 ;;		On entry : 0/0
  4186 ;;		On exit  : 0/0
  4187 ;;		Unchanged: 0/0
  4188 ;; Data sizes:     COMMON   BANK0   BANK1   BANK3   BANK2
  4189 ;;      Params:         0       8       0       0       0
  4190 ;;      Locals:         0       4       0       0       0
  4191 ;;      Temps:          0       8       0       0       0
  4192 ;;      Totals:         0      20       0       0       0
  4193 ;;Total ram usage:       20 bytes
  4194 ;; Hardware stack levels used: 1
  4195 ;; Hardware stack levels required when called: 1
  4196 ;; This function calls:
  4197 ;;		Nothing
  4198 ;; This function is called by:
  4199 ;;		_hysterisis
  4200 ;; This function uses a non-reentrant model
  4201 ;;
  4202                           
  4203     0A63                     ___fladd:	
  4204                           ;psect for function ___fladd
  4205                           
  4206     0A63                     l3228:	
  4207                           ;incstack = 0
  4208                           ; Regs used in ___fladd: [wreg+status,2+status,0+btemp+1]
  4209                           
  4210     0A63  1283               	bcf	3,5	;RP0=0, select bank0
  4211     0A64  1303               	bcf	3,6	;RP1=0, select bank0
  4212     0A65  0823               	movf	___fladd@b+3,w
  4213     0A66  3980               	andlw	128
  4214     0A67  00B0               	movwf	___fladd@signs
  4215     0A68                     l3230:
  4216     0A68  0823               	movf	___fladd@b+3,w
  4217     0A69  00A8               	movwf	??___fladd
  4218     0A6A  0728               	addwf	??___fladd,w
  4219     0A6B  00B2               	movwf	___fladd@bexp
  4220     0A6C                     l3232:
  4221     0A6C  1FA2               	btfss	___fladd@b+2,7
  4222     0A6D  2A6F               	goto	u4251
  4223     0A6E  2A70               	goto	u4250
  4224     0A6F                     u4251:
  4225     0A6F  2A71               	goto	l3236
  4226     0A70                     u4250:
  4227     0A70                     l3234:
  4228     0A70  1432               	bsf	___fladd@bexp,0
  4229     0A71                     l3236:
  4230     0A71  0832               	movf	___fladd@bexp,w
  4231     0A72  1903               	btfsc	3,2
  4232     0A73  2A75               	goto	u4261
  4233     0A74  2A76               	goto	u4260
  4234     0A75                     u4261:
  4235     0A75  2A86               	goto	l3246
  4236     0A76                     u4260:
  4237     0A76                     l3238:
  4238     0A76  0A32               	incf	___fladd@bexp,w
  4239     0A77  1D03               	btfss	3,2
  4240     0A78  2A7A               	goto	u4271
  4241     0A79  2A7B               	goto	u4270
  4242     0A7A                     u4271:
  4243     0A7A  2A83               	goto	l3242
  4244     0A7B                     u4270:
  4245     0A7B                     l3240:
  4246     0A7B  3000               	movlw	0
  4247     0A7C  00A3               	movwf	___fladd@b+3
  4248     0A7D  3000               	movlw	0
  4249     0A7E  00A2               	movwf	___fladd@b+2
  4250     0A7F  3000               	movlw	0
  4251     0A80  00A1               	movwf	___fladd@b+1
  4252     0A81  3000               	movlw	0
  4253     0A82  00A0               	movwf	___fladd@b
  4254     0A83                     l3242:
  4255     0A83  17A2               	bsf	___fladd@b+2,7
  4256     0A84                     l3244:
  4257     0A84  01A3               	clrf	___fladd@b+3
  4258     0A85  2A8E               	goto	l3248
  4259     0A86                     l3246:
  4260     0A86  3000               	movlw	0
  4261     0A87  00A3               	movwf	___fladd@b+3
  4262     0A88  3000               	movlw	0
  4263     0A89  00A2               	movwf	___fladd@b+2
  4264     0A8A  3000               	movlw	0
  4265     0A8B  00A1               	movwf	___fladd@b+1
  4266     0A8C  3000               	movlw	0
  4267     0A8D  00A0               	movwf	___fladd@b
  4268     0A8E                     l3248:
  4269     0A8E  0827               	movf	___fladd@a+3,w
  4270     0A8F  3980               	andlw	128
  4271     0A90  00B1               	movwf	___fladd@aexp
  4272     0A91                     l3250:
  4273     0A91  0831               	movf	___fladd@aexp,w
  4274     0A92  0630               	xorwf	___fladd@signs,w
  4275     0A93  1903               	skipnz
  4276     0A94  2A96               	goto	u4281
  4277     0A95  2A97               	goto	u4280
  4278     0A96                     u4281:
  4279     0A96  2A98               	goto	l3254
  4280     0A97                     u4280:
  4281     0A97                     l3252:
  4282     0A97  1730               	bsf	___fladd@signs,6
  4283     0A98                     l3254:
  4284     0A98  0827               	movf	___fladd@a+3,w
  4285     0A99  00A8               	movwf	??___fladd
  4286     0A9A  0728               	addwf	??___fladd,w
  4287     0A9B  00B1               	movwf	___fladd@aexp
  4288     0A9C                     l3256:
  4289     0A9C  1FA6               	btfss	___fladd@a+2,7
  4290     0A9D  2A9F               	goto	u4291
  4291     0A9E  2AA0               	goto	u4290
  4292     0A9F                     u4291:
  4293     0A9F  2AA1               	goto	l3260
  4294     0AA0                     u4290:
  4295     0AA0                     l3258:
  4296     0AA0  1431               	bsf	___fladd@aexp,0
  4297     0AA1                     l3260:
  4298     0AA1  0831               	movf	___fladd@aexp,w
  4299     0AA2  1903               	btfsc	3,2
  4300     0AA3  2AA5               	goto	u4301
  4301     0AA4  2AA6               	goto	u4300
  4302     0AA5                     u4301:
  4303     0AA5  2AB6               	goto	l3270
  4304     0AA6                     u4300:
  4305     0AA6                     l3262:
  4306     0AA6  0A31               	incf	___fladd@aexp,w
  4307     0AA7  1D03               	btfss	3,2
  4308     0AA8  2AAA               	goto	u4311
  4309     0AA9  2AAB               	goto	u4310
  4310     0AAA                     u4311:
  4311     0AAA  2AB3               	goto	l3266
  4312     0AAB                     u4310:
  4313     0AAB                     l3264:
  4314     0AAB  3000               	movlw	0
  4315     0AAC  00A7               	movwf	___fladd@a+3
  4316     0AAD  3000               	movlw	0
  4317     0AAE  00A6               	movwf	___fladd@a+2
  4318     0AAF  3000               	movlw	0
  4319     0AB0  00A5               	movwf	___fladd@a+1
  4320     0AB1  3000               	movlw	0
  4321     0AB2  00A4               	movwf	___fladd@a
  4322     0AB3                     l3266:
  4323     0AB3  17A6               	bsf	___fladd@a+2,7
  4324     0AB4                     l3268:
  4325     0AB4  01A7               	clrf	___fladd@a+3
  4326     0AB5  2ABE               	goto	l599
  4327     0AB6                     l3270:
  4328     0AB6  3000               	movlw	0
  4329     0AB7  00A7               	movwf	___fladd@a+3
  4330     0AB8  3000               	movlw	0
  4331     0AB9  00A6               	movwf	___fladd@a+2
  4332     0ABA  3000               	movlw	0
  4333     0ABB  00A5               	movwf	___fladd@a+1
  4334     0ABC  3000               	movlw	0
  4335     0ABD  00A4               	movwf	___fladd@a
  4336     0ABE                     l599:
  4337     0ABE  0832               	movf	___fladd@bexp,w
  4338     0ABF  0231               	subwf	___fladd@aexp,w
  4339     0AC0  1803               	skipnc
  4340     0AC1  2AC3               	goto	u4321
  4341     0AC2  2AC4               	goto	u4320
  4342     0AC3                     u4321:
  4343     0AC3  2AEA               	goto	l3306
  4344     0AC4                     u4320:
  4345     0AC4                     l3272:
  4346     0AC4  1F30               	btfss	___fladd@signs,6
  4347     0AC5  2AC7               	goto	u4331
  4348     0AC6  2AC8               	goto	u4330
  4349     0AC7                     u4331:
  4350     0AC7  2ACC               	goto	l3276
  4351     0AC8                     u4330:
  4352     0AC8                     l3274:
  4353     0AC8  3080               	movlw	128
  4354     0AC9  00FF               	movwf	btemp+1
  4355     0ACA  087F               	movf	btemp+1,w
  4356     0ACB  06B0               	xorwf	___fladd@signs,f
  4357     0ACC                     l3276:
  4358     0ACC  0832               	movf	___fladd@bexp,w
  4359     0ACD  00B3               	movwf	___fladd@grs
  4360     0ACE                     l3278:
  4361     0ACE  0831               	movf	___fladd@aexp,w
  4362     0ACF  00B2               	movwf	___fladd@bexp
  4363     0AD0                     l3280:
  4364     0AD0  0833               	movf	___fladd@grs,w
  4365     0AD1  00B1               	movwf	___fladd@aexp
  4366     0AD2                     l3282:
  4367     0AD2  0820               	movf	___fladd@b,w
  4368     0AD3  00B3               	movwf	___fladd@grs
  4369     0AD4                     l3284:
  4370     0AD4  0824               	movf	___fladd@a,w
  4371     0AD5  00A0               	movwf	___fladd@b
  4372     0AD6                     l3286:
  4373     0AD6  0833               	movf	___fladd@grs,w
  4374     0AD7  00A4               	movwf	___fladd@a
  4375     0AD8                     l3288:
  4376     0AD8  0821               	movf	___fladd@b+1,w
  4377     0AD9  00B3               	movwf	___fladd@grs
  4378     0ADA                     l3290:
  4379     0ADA  0825               	movf	___fladd@a+1,w
  4380     0ADB  00A1               	movwf	___fladd@b+1
  4381     0ADC                     l3292:
  4382     0ADC  0833               	movf	___fladd@grs,w
  4383     0ADD  00A5               	movwf	___fladd@a+1
  4384     0ADE                     l3294:
  4385     0ADE  0822               	movf	___fladd@b+2,w
  4386     0ADF  00B3               	movwf	___fladd@grs
  4387     0AE0                     l3296:
  4388     0AE0  0826               	movf	___fladd@a+2,w
  4389     0AE1  00A2               	movwf	___fladd@b+2
  4390     0AE2                     l3298:
  4391     0AE2  0833               	movf	___fladd@grs,w
  4392     0AE3  00A6               	movwf	___fladd@a+2
  4393     0AE4                     l3300:
  4394     0AE4  0823               	movf	___fladd@b+3,w
  4395     0AE5  00B3               	movwf	___fladd@grs
  4396     0AE6                     l3302:
  4397     0AE6  0827               	movf	___fladd@a+3,w
  4398     0AE7  00A3               	movwf	___fladd@b+3
  4399     0AE8                     l3304:
  4400     0AE8  0833               	movf	___fladd@grs,w
  4401     0AE9  00A7               	movwf	___fladd@a+3
  4402     0AEA                     l3306:
  4403     0AEA  01B3               	clrf	___fladd@grs
  4404     0AEB                     l3308:
  4405     0AEB  0831               	movf	___fladd@aexp,w
  4406     0AEC  00A8               	movwf	??___fladd
  4407     0AED  01A9               	clrf	??___fladd+1
  4408     0AEE  0829               	movf	??___fladd+1,w
  4409     0AEF  00AB               	movwf	??___fladd+3
  4410     0AF0  0832               	movf	___fladd@bexp,w
  4411     0AF1  0228               	subwf	??___fladd,w
  4412     0AF2  00AA               	movwf	??___fladd+2
  4413     0AF3  1C03               	skipc
  4414     0AF4  03AB               	decf	??___fladd+3,f
  4415     0AF5  082B               	movf	??___fladd+3,w
  4416     0AF6  3A80               	xorlw	128
  4417     0AF7  00FF               	movwf	btemp+1
  4418     0AF8  3080               	movlw	128
  4419     0AF9  027F               	subwf	btemp+1,w
  4420     0AFA  1D03               	skipz
  4421     0AFB  2AFE               	goto	u4345
  4422     0AFC  301A               	movlw	26
  4423     0AFD  022A               	subwf	??___fladd+2,w
  4424     0AFE                     u4345:
  4425     0AFE  1C03               	skipc
  4426     0AFF  2B01               	goto	u4341
  4427     0B00  2B02               	goto	u4340
  4428     0B01                     u4341:
  4429     0B01  2B39               	goto	l3324
  4430     0B02                     u4340:
  4431     0B02                     l3310:
  4432     0B02  1283               	bcf	3,5	;RP0=0, select bank0
  4433     0B03  1303               	bcf	3,6	;RP1=0, select bank0
  4434     0B04  0823               	movf	___fladd@b+3,w
  4435     0B05  0422               	iorwf	___fladd@b+2,w
  4436     0B06  0421               	iorwf	___fladd@b+1,w
  4437     0B07  0420               	iorwf	___fladd@b,w
  4438     0B08  1D03               	skipz
  4439     0B09  2B0B               	goto	u4351
  4440     0B0A  2B0D               	goto	u4350
  4441     0B0B                     u4351:
  4442     0B0B  3001               	movlw	1
  4443     0B0C  2B0E               	goto	u4360
  4444     0B0D                     u4350:
  4445     0B0D  3000               	movlw	0
  4446     0B0E                     u4360:
  4447     0B0E  00B3               	movwf	___fladd@grs
  4448     0B0F  3000               	movlw	0
  4449     0B10  00A3               	movwf	___fladd@b+3
  4450     0B11  3000               	movlw	0
  4451     0B12  00A2               	movwf	___fladd@b+2
  4452     0B13  3000               	movlw	0
  4453     0B14  00A1               	movwf	___fladd@b+1
  4454     0B15  3000               	movlw	0
  4455     0B16  00A0               	movwf	___fladd@b
  4456     0B17  0831               	movf	___fladd@aexp,w
  4457     0B18  00B2               	movwf	___fladd@bexp
  4458     0B19  2B41               	goto	l603
  4459     0B1A                     l605:
  4460     0B1A  1C33               	btfss	___fladd@grs,0
  4461     0B1B  2B1D               	goto	u4371
  4462     0B1C  2B1E               	goto	u4370
  4463     0B1D                     u4371:
  4464     0B1D  2B25               	goto	l3314
  4465     0B1E                     u4370:
  4466     0B1E                     l3312:
  4467     0B1E  0833               	movf	___fladd@grs,w
  4468     0B1F  00A8               	movwf	??___fladd
  4469     0B20  1003               	clrc
  4470     0B21  0C28               	rrf	??___fladd,w
  4471     0B22  3801               	iorlw	1
  4472     0B23  00B3               	movwf	___fladd@grs
  4473     0B24  2B27               	goto	l3316
  4474     0B25                     l3314:
  4475     0B25  1003               	clrc
  4476     0B26  0CB3               	rrf	___fladd@grs,f
  4477     0B27                     l3316:
  4478     0B27  1C20               	btfss	___fladd@b,0
  4479     0B28  2B2A               	goto	u4381
  4480     0B29  2B2B               	goto	u4380
  4481     0B2A                     u4381:
  4482     0B2A  2B2C               	goto	l3320
  4483     0B2B                     u4380:
  4484     0B2B                     l3318:
  4485     0B2B  17B3               	bsf	___fladd@grs,7
  4486     0B2C                     l3320:
  4487     0B2C  3001               	movlw	1
  4488     0B2D  00A8               	movwf	??___fladd
  4489     0B2E                     u4395:
  4490     0B2E  0D23               	rlf	___fladd@b+3,w
  4491     0B2F  0CA3               	rrf	___fladd@b+3,f
  4492     0B30  0CA2               	rrf	___fladd@b+2,f
  4493     0B31  0CA1               	rrf	___fladd@b+1,f
  4494     0B32  0CA0               	rrf	___fladd@b,f
  4495     0B33  0BA8               	decfsz	??___fladd& (0+127),f
  4496     0B34  2B2E               	goto	u4395
  4497     0B35                     l3322:
  4498     0B35  3001               	movlw	1
  4499     0B36  00FF               	movwf	btemp+1
  4500     0B37  087F               	movf	btemp+1,w
  4501     0B38  07B2               	addwf	___fladd@bexp,f
  4502     0B39                     l3324:
  4503     0B39  1283               	bcf	3,5	;RP0=0, select bank0
  4504     0B3A  1303               	bcf	3,6	;RP1=0, select bank0
  4505     0B3B  0831               	movf	___fladd@aexp,w
  4506     0B3C  0232               	subwf	___fladd@bexp,w
  4507     0B3D  1C03               	skipc
  4508     0B3E  2B40               	goto	u4401
  4509     0B3F  2B41               	goto	u4400
  4510     0B40                     u4401:
  4511     0B40  2B1A               	goto	l605
  4512     0B41                     u4400:
  4513     0B41                     l603:
  4514     0B41  1B30               	btfsc	___fladd@signs,6
  4515     0B42  2B44               	goto	u4411
  4516     0B43  2B45               	goto	u4410
  4517     0B44                     u4411:
  4518     0B44  2B8E               	goto	l3350
  4519     0B45                     u4410:
  4520     0B45                     l3326:
  4521     0B45  0832               	movf	___fladd@bexp,w
  4522     0B46  1D03               	btfss	3,2
  4523     0B47  2B49               	goto	u4421
  4524     0B48  2B4A               	goto	u4420
  4525     0B49                     u4421:
  4526     0B49  2B53               	goto	l3332
  4527     0B4A                     u4420:
  4528     0B4A                     l3328:
  4529     0B4A  3000               	movlw	0
  4530     0B4B  00A3               	movwf	?___fladd+3
  4531     0B4C  3000               	movlw	0
  4532     0B4D  00A2               	movwf	?___fladd+2
  4533     0B4E  3000               	movlw	0
  4534     0B4F  00A1               	movwf	?___fladd+1
  4535     0B50  3000               	movlw	0
  4536     0B51  00A0               	movwf	?___fladd
  4537     0B52  2CBA               	goto	l612
  4538     0B53                     l3332:
  4539     0B53  0824               	movf	___fladd@a,w
  4540     0B54  07A0               	addwf	___fladd@b,f
  4541     0B55  0825               	movf	___fladd@a+1,w
  4542     0B56  1103               	clrz
  4543     0B57  1803               	skipnc
  4544     0B58  3E01               	addlw	1
  4545     0B59  1903               	skipnz
  4546     0B5A  2B5C               	goto	u4431
  4547     0B5B  07A1               	addwf	___fladd@b+1,f
  4548     0B5C                     u4431:
  4549     0B5C  0826               	movf	___fladd@a+2,w
  4550     0B5D  1103               	clrz
  4551     0B5E  1803               	skipnc
  4552     0B5F  3E01               	addlw	1
  4553     0B60  1903               	skipnz
  4554     0B61  2B63               	goto	u4432
  4555     0B62  07A2               	addwf	___fladd@b+2,f
  4556     0B63                     u4432:
  4557     0B63  0827               	movf	___fladd@a+3,w
  4558     0B64  1103               	clrz
  4559     0B65  1803               	skipnc
  4560     0B66  3E01               	addlw	1
  4561     0B67  1903               	skipnz
  4562     0B68  2B6A               	goto	u4433
  4563     0B69  07A3               	addwf	___fladd@b+3,f
  4564     0B6A                     u4433:
  4565     0B6A                     l3334:
  4566     0B6A  1C23               	btfss	___fladd@b+3,0
  4567     0B6B  2B6D               	goto	u4441
  4568     0B6C  2B6E               	goto	u4440
  4569     0B6D                     u4441:
  4570     0B6D  2C42               	goto	l3386
  4571     0B6E                     u4440:
  4572     0B6E                     l3336:
  4573     0B6E  1C33               	btfss	___fladd@grs,0
  4574     0B6F  2B71               	goto	u4451
  4575     0B70  2B72               	goto	u4450
  4576     0B71                     u4451:
  4577     0B71  2B79               	goto	l3340
  4578     0B72                     u4450:
  4579     0B72                     l3338:
  4580     0B72  0833               	movf	___fladd@grs,w
  4581     0B73  00A8               	movwf	??___fladd
  4582     0B74  1003               	clrc
  4583     0B75  0C28               	rrf	??___fladd,w
  4584     0B76  3801               	iorlw	1
  4585     0B77  00B3               	movwf	___fladd@grs
  4586     0B78  2B7B               	goto	l3342
  4587     0B79                     l3340:
  4588     0B79  1003               	clrc
  4589     0B7A  0CB3               	rrf	___fladd@grs,f
  4590     0B7B                     l3342:
  4591     0B7B  1C20               	btfss	___fladd@b,0
  4592     0B7C  2B7E               	goto	u4461
  4593     0B7D  2B7F               	goto	u4460
  4594     0B7E                     u4461:
  4595     0B7E  2B80               	goto	l3346
  4596     0B7F                     u4460:
  4597     0B7F                     l3344:
  4598     0B7F  17B3               	bsf	___fladd@grs,7
  4599     0B80                     l3346:
  4600     0B80  3001               	movlw	1
  4601     0B81  00A8               	movwf	??___fladd
  4602     0B82                     u4475:
  4603     0B82  0D23               	rlf	___fladd@b+3,w
  4604     0B83  0CA3               	rrf	___fladd@b+3,f
  4605     0B84  0CA2               	rrf	___fladd@b+2,f
  4606     0B85  0CA1               	rrf	___fladd@b+1,f
  4607     0B86  0CA0               	rrf	___fladd@b,f
  4608     0B87  0BA8               	decfsz	??___fladd& (0+127),f
  4609     0B88  2B82               	goto	u4475
  4610     0B89                     l3348:
  4611     0B89  3001               	movlw	1
  4612     0B8A  00FF               	movwf	btemp+1
  4613     0B8B  087F               	movf	btemp+1,w
  4614     0B8C  07B2               	addwf	___fladd@bexp,f
  4615     0B8D  2C42               	goto	l3386
  4616     0B8E                     l3350:
  4617     0B8E  0823               	movf	___fladd@b+3,w
  4618     0B8F  3A80               	xorlw	128
  4619     0B90  00FF               	movwf	btemp+1
  4620     0B91  0827               	movf	___fladd@a+3,w
  4621     0B92  3A80               	xorlw	128
  4622     0B93  027F               	subwf	btemp+1,w
  4623     0B94  1D03               	skipz
  4624     0B95  2BA0               	goto	u4483
  4625     0B96  0826               	movf	___fladd@a+2,w
  4626     0B97  0222               	subwf	___fladd@b+2,w
  4627     0B98  1D03               	skipz
  4628     0B99  2BA0               	goto	u4483
  4629     0B9A  0825               	movf	___fladd@a+1,w
  4630     0B9B  0221               	subwf	___fladd@b+1,w
  4631     0B9C  1D03               	skipz
  4632     0B9D  2BA0               	goto	u4483
  4633     0B9E  0824               	movf	___fladd@a,w
  4634     0B9F  0220               	subwf	___fladd@b,w
  4635     0BA0                     u4483:
  4636     0BA0  1803               	skipnc
  4637     0BA1  2BA3               	goto	u4481
  4638     0BA2  2BA4               	goto	u4480
  4639     0BA3                     u4481:
  4640     0BA3  2BFC               	goto	l3362
  4641     0BA4                     u4480:
  4642     0BA4                     l3352:
  4643     0BA4  30FF               	movlw	255
  4644     0BA5  00A8               	movwf	??___fladd
  4645     0BA6  30FF               	movlw	255
  4646     0BA7  00A9               	movwf	??___fladd+1
  4647     0BA8  30FF               	movlw	255
  4648     0BA9  00AA               	movwf	??___fladd+2
  4649     0BAA  30FF               	movlw	255
  4650     0BAB  00AB               	movwf	??___fladd+3
  4651     0BAC  0824               	movf	___fladd@a,w
  4652     0BAD  00AC               	movwf	??___fladd+4
  4653     0BAE  0825               	movf	___fladd@a+1,w
  4654     0BAF  00AD               	movwf	??___fladd+5
  4655     0BB0  0826               	movf	___fladd@a+2,w
  4656     0BB1  00AE               	movwf	??___fladd+6
  4657     0BB2  0827               	movf	___fladd@a+3,w
  4658     0BB3  00AF               	movwf	??___fladd+7
  4659     0BB4  0820               	movf	___fladd@b,w
  4660     0BB5  02AC               	subwf	??___fladd+4,f
  4661     0BB6  0821               	movf	___fladd@b+1,w
  4662     0BB7  1C03               	skipc
  4663     0BB8  0F21               	incfsz	___fladd@b+1,w
  4664     0BB9  2BBB               	goto	u4491
  4665     0BBA  2BBC               	goto	u4492
  4666     0BBB                     u4491:
  4667     0BBB  02AD               	subwf	??___fladd+5,f
  4668     0BBC                     u4492:
  4669     0BBC  0822               	movf	___fladd@b+2,w
  4670     0BBD  1C03               	skipc
  4671     0BBE  0F22               	incfsz	___fladd@b+2,w
  4672     0BBF  2BC1               	goto	u4493
  4673     0BC0  2BC2               	goto	u4494
  4674     0BC1                     u4493:
  4675     0BC1  02AE               	subwf	??___fladd+6,f
  4676     0BC2                     u4494:
  4677     0BC2  0823               	movf	___fladd@b+3,w
  4678     0BC3  1C03               	skipc
  4679     0BC4  0F23               	incfsz	___fladd@b+3,w
  4680     0BC5  2BC7               	goto	u4495
  4681     0BC6  2BC8               	goto	u4496
  4682     0BC7                     u4495:
  4683     0BC7  02AF               	subwf	??___fladd+7,f
  4684     0BC8                     u4496:
  4685     0BC8  082C               	movf	??___fladd+4,w
  4686     0BC9  07A8               	addwf	??___fladd,f
  4687     0BCA  082D               	movf	??___fladd+5,w
  4688     0BCB  1803               	skipnc
  4689     0BCC  0F2D               	incfsz	??___fladd+5,w
  4690     0BCD  2BCF               	goto	u4500
  4691     0BCE  2BD0               	goto	u4501
  4692     0BCF                     u4500:
  4693     0BCF  07A9               	addwf	??___fladd+1,f
  4694     0BD0                     u4501:
  4695     0BD0  082E               	movf	??___fladd+6,w
  4696     0BD1  1803               	skipnc
  4697     0BD2  0F2E               	incfsz	??___fladd+6,w
  4698     0BD3  2BD5               	goto	u4502
  4699     0BD4  2BD6               	goto	u4503
  4700     0BD5                     u4502:
  4701     0BD5  07AA               	addwf	??___fladd+2,f
  4702     0BD6                     u4503:
  4703     0BD6  082F               	movf	??___fladd+7,w
  4704     0BD7  1803               	skipnc
  4705     0BD8  0A2F               	incf	??___fladd+7,w
  4706     0BD9  07AB               	addwf	??___fladd+3,f
  4707     0BDA  082B               	movf	??___fladd+3,w
  4708     0BDB  00A3               	movwf	___fladd@b+3
  4709     0BDC  082A               	movf	??___fladd+2,w
  4710     0BDD  00A2               	movwf	___fladd@b+2
  4711     0BDE  0829               	movf	??___fladd+1,w
  4712     0BDF  00A1               	movwf	___fladd@b+1
  4713     0BE0  0828               	movf	??___fladd,w
  4714     0BE1  00A0               	movwf	___fladd@b
  4715     0BE2                     l3354:
  4716     0BE2  3080               	movlw	128
  4717     0BE3  00FF               	movwf	btemp+1
  4718     0BE4  087F               	movf	btemp+1,w
  4719     0BE5  06B0               	xorwf	___fladd@signs,f
  4720     0BE6                     l3356:
  4721     0BE6  09B3               	comf	___fladd@grs,f
  4722     0BE7  0AB3               	incf	___fladd@grs,f
  4723     0BE8                     l3358:
  4724     0BE8  0833               	movf	___fladd@grs,w
  4725     0BE9  1D03               	btfss	3,2
  4726     0BEA  2BEC               	goto	u4511
  4727     0BEB  2BED               	goto	u4510
  4728     0BEC                     u4511:
  4729     0BEC  2C0A               	goto	l620
  4730     0BED                     u4510:
  4731     0BED                     l3360:
  4732     0BED  3001               	movlw	1
  4733     0BEE  07A0               	addwf	___fladd@b,f
  4734     0BEF  3000               	movlw	0
  4735     0BF0  1803               	skipnc
  4736     0BF1  3001               	movlw	1
  4737     0BF2  07A1               	addwf	___fladd@b+1,f
  4738     0BF3  3000               	movlw	0
  4739     0BF4  1803               	skipnc
  4740     0BF5  3001               	movlw	1
  4741     0BF6  07A2               	addwf	___fladd@b+2,f
  4742     0BF7  3000               	movlw	0
  4743     0BF8  1803               	skipnc
  4744     0BF9  3001               	movlw	1
  4745     0BFA  07A3               	addwf	___fladd@b+3,f
  4746     0BFB  2C0A               	goto	l620
  4747     0BFC                     l3362:
  4748     0BFC  0824               	movf	___fladd@a,w
  4749     0BFD  02A0               	subwf	___fladd@b,f
  4750     0BFE  0825               	movf	___fladd@a+1,w
  4751     0BFF  1C03               	skipc
  4752     0C00  0F25               	incfsz	___fladd@a+1,w
  4753     0C01  02A1               	subwf	___fladd@b+1,f
  4754     0C02  0826               	movf	___fladd@a+2,w
  4755     0C03  1C03               	skipc
  4756     0C04  0F26               	incfsz	___fladd@a+2,w
  4757     0C05  02A2               	subwf	___fladd@b+2,f
  4758     0C06  0827               	movf	___fladd@a+3,w
  4759     0C07  1C03               	skipc
  4760     0C08  0F27               	incfsz	___fladd@a+3,w
  4761     0C09  02A3               	subwf	___fladd@b+3,f
  4762     0C0A                     l620:
  4763     0C0A  0823               	movf	___fladd@b+3,w
  4764     0C0B  0422               	iorwf	___fladd@b+2,w
  4765     0C0C  0421               	iorwf	___fladd@b+1,w
  4766     0C0D  0420               	iorwf	___fladd@b,w
  4767     0C0E  1D03               	skipz
  4768     0C0F  2C11               	goto	u4521
  4769     0C10  2C12               	goto	u4520
  4770     0C11                     u4521:
  4771     0C11  2C3E               	goto	l3384
  4772     0C12                     u4520:
  4773     0C12                     l3364:
  4774     0C12  0833               	movf	___fladd@grs,w
  4775     0C13  1D03               	btfss	3,2
  4776     0C14  2C16               	goto	u4531
  4777     0C15  2C17               	goto	u4530
  4778     0C16                     u4531:
  4779     0C16  2C3E               	goto	l3384
  4780     0C17                     u4530:
  4781     0C17                     l3366:
  4782     0C17  3000               	movlw	0
  4783     0C18  00A3               	movwf	?___fladd+3
  4784     0C19  3000               	movlw	0
  4785     0C1A  00A2               	movwf	?___fladd+2
  4786     0C1B  3000               	movlw	0
  4787     0C1C  00A1               	movwf	?___fladd+1
  4788     0C1D  3000               	movlw	0
  4789     0C1E  00A0               	movwf	?___fladd
  4790     0C1F  2CBA               	goto	l612
  4791     0C20                     l3370:
  4792     0C20  3001               	movlw	1
  4793     0C21  00A8               	movwf	??___fladd
  4794     0C22                     u4545:
  4795     0C22  1003               	clrc
  4796     0C23  0DA0               	rlf	___fladd@b,f
  4797     0C24  0DA1               	rlf	___fladd@b+1,f
  4798     0C25  0DA2               	rlf	___fladd@b+2,f
  4799     0C26  0DA3               	rlf	___fladd@b+3,f
  4800     0C27  0BA8               	decfsz	??___fladd,f
  4801     0C28  2C22               	goto	u4545
  4802     0C29                     l3372:
  4803     0C29  1FB3               	btfss	___fladd@grs,7
  4804     0C2A  2C2C               	goto	u4551
  4805     0C2B  2C2D               	goto	u4550
  4806     0C2C                     u4551:
  4807     0C2C  2C2E               	goto	l624
  4808     0C2D                     u4550:
  4809     0C2D                     l3374:
  4810     0C2D  1420               	bsf	___fladd@b,0
  4811     0C2E                     l624:
  4812     0C2E  1C33               	btfss	___fladd@grs,0
  4813     0C2F  2C31               	goto	u4561
  4814     0C30  2C32               	goto	u4560
  4815     0C31                     u4561:
  4816     0C31  2C35               	goto	l3378
  4817     0C32                     u4560:
  4818     0C32                     l3376:
  4819     0C32  1403               	setc
  4820     0C33  0DB3               	rlf	___fladd@grs,f
  4821     0C34  2C37               	goto	l3380
  4822     0C35                     l3378:
  4823     0C35  1003               	clrc
  4824     0C36  0DB3               	rlf	___fladd@grs,f
  4825     0C37                     l3380:
  4826     0C37  0832               	movf	___fladd@bexp,w
  4827     0C38  1903               	btfsc	3,2
  4828     0C39  2C3B               	goto	u4571
  4829     0C3A  2C3C               	goto	u4570
  4830     0C3B                     u4571:
  4831     0C3B  2C3E               	goto	l3384
  4832     0C3C                     u4570:
  4833     0C3C                     l3382:
  4834     0C3C  3001               	movlw	1
  4835     0C3D  02B2               	subwf	___fladd@bexp,f
  4836     0C3E                     l3384:
  4837     0C3E  1FA2               	btfss	___fladd@b+2,7
  4838     0C3F  2C41               	goto	u4581
  4839     0C40  2C42               	goto	u4580
  4840     0C41                     u4581:
  4841     0C41  2C20               	goto	l3370
  4842     0C42                     u4580:
  4843     0C42                     l3386:
  4844     0C42  01B1               	clrf	___fladd@aexp
  4845     0C43                     l3388:
  4846     0C43  1FB3               	btfss	___fladd@grs,7
  4847     0C44  2C46               	goto	u4591
  4848     0C45  2C47               	goto	u4590
  4849     0C46                     u4591:
  4850     0C46  2C55               	goto	l3396
  4851     0C47                     u4590:
  4852     0C47                     l3390:
  4853     0C47  0833               	movf	___fladd@grs,w
  4854     0C48  397F               	andlw	127
  4855     0C49  1903               	btfsc	3,2
  4856     0C4A  2C4C               	goto	u4601
  4857     0C4B  2C4D               	goto	u4600
  4858     0C4C                     u4601:
  4859     0C4C  2C50               	goto	l630
  4860     0C4D                     u4600:
  4861     0C4D                     l3392:
  4862     0C4D  01B1               	clrf	___fladd@aexp
  4863     0C4E  0AB1               	incf	___fladd@aexp,f
  4864     0C4F  2C55               	goto	l3396
  4865     0C50                     l630:
  4866     0C50  1C20               	btfss	___fladd@b,0
  4867     0C51  2C53               	goto	u4611
  4868     0C52  2C54               	goto	u4610
  4869     0C53                     u4611:
  4870     0C53  2C55               	goto	l3396
  4871     0C54                     u4610:
  4872     0C54  2C4D               	goto	l3392
  4873     0C55                     l3396:
  4874     0C55  0831               	movf	___fladd@aexp,w
  4875     0C56  1903               	btfsc	3,2
  4876     0C57  2C59               	goto	u4621
  4877     0C58  2C5A               	goto	u4620
  4878     0C59                     u4621:
  4879     0C59  2C8E               	goto	l3406
  4880     0C5A                     u4620:
  4881     0C5A                     l3398:
  4882     0C5A  3001               	movlw	1
  4883     0C5B  07A0               	addwf	___fladd@b,f
  4884     0C5C  3000               	movlw	0
  4885     0C5D  1803               	skipnc
  4886     0C5E  3001               	movlw	1
  4887     0C5F  07A1               	addwf	___fladd@b+1,f
  4888     0C60  3000               	movlw	0
  4889     0C61  1803               	skipnc
  4890     0C62  3001               	movlw	1
  4891     0C63  07A2               	addwf	___fladd@b+2,f
  4892     0C64  3000               	movlw	0
  4893     0C65  1803               	skipnc
  4894     0C66  3001               	movlw	1
  4895     0C67  07A3               	addwf	___fladd@b+3,f
  4896     0C68                     l3400:
  4897     0C68  1C23               	btfss	___fladd@b+3,0
  4898     0C69  2C6B               	goto	u4631
  4899     0C6A  2C6C               	goto	u4630
  4900     0C6B                     u4631:
  4901     0C6B  2C8E               	goto	l3406
  4902     0C6C                     u4630:
  4903     0C6C                     l3402:
  4904     0C6C  0820               	movf	___fladd@b,w
  4905     0C6D  00A8               	movwf	??___fladd
  4906     0C6E  0821               	movf	___fladd@b+1,w
  4907     0C6F  00A9               	movwf	??___fladd+1
  4908     0C70  0822               	movf	___fladd@b+2,w
  4909     0C71  00AA               	movwf	??___fladd+2
  4910     0C72  0823               	movf	___fladd@b+3,w
  4911     0C73  00AB               	movwf	??___fladd+3
  4912     0C74  3001               	movlw	1
  4913     0C75  00AC               	movwf	??___fladd+4
  4914     0C76                     u4645:
  4915     0C76  0D2B               	rlf	??___fladd+3,w
  4916     0C77  0CAB               	rrf	??___fladd+3,f
  4917     0C78  0CAA               	rrf	??___fladd+2,f
  4918     0C79  0CA9               	rrf	??___fladd+1,f
  4919     0C7A  0CA8               	rrf	??___fladd,f
  4920     0C7B                     u4640:
  4921     0C7B  0BAC               	decfsz	??___fladd+4,f
  4922     0C7C  2C76               	goto	u4645
  4923     0C7D  082B               	movf	??___fladd+3,w
  4924     0C7E  00A3               	movwf	___fladd@b+3
  4925     0C7F  082A               	movf	??___fladd+2,w
  4926     0C80  00A2               	movwf	___fladd@b+2
  4927     0C81  0829               	movf	??___fladd+1,w
  4928     0C82  00A1               	movwf	___fladd@b+1
  4929     0C83  0828               	movf	??___fladd,w
  4930     0C84  00A0               	movwf	___fladd@b
  4931     0C85  0A32               	incf	___fladd@bexp,w
  4932     0C86  1903               	btfsc	3,2
  4933     0C87  2C89               	goto	u4651
  4934     0C88  2C8A               	goto	u4650
  4935     0C89                     u4651:
  4936     0C89  2C8E               	goto	l3406
  4937     0C8A                     u4650:
  4938     0C8A                     l3404:
  4939     0C8A  3001               	movlw	1
  4940     0C8B  00FF               	movwf	btemp+1
  4941     0C8C  087F               	movf	btemp+1,w
  4942     0C8D  07B2               	addwf	___fladd@bexp,f
  4943     0C8E                     l3406:
  4944     0C8E  0A32               	incf	___fladd@bexp,w
  4945     0C8F  1903               	btfsc	3,2
  4946     0C90  2C92               	goto	u4661
  4947     0C91  2C93               	goto	u4660
  4948     0C92                     u4661:
  4949     0C92  2C98               	goto	l3410
  4950     0C93                     u4660:
  4951     0C93                     l3408:
  4952     0C93  0832               	movf	___fladd@bexp,w
  4953     0C94  1D03               	btfss	3,2
  4954     0C95  2C97               	goto	u4671
  4955     0C96  2C98               	goto	u4670
  4956     0C97                     u4671:
  4957     0C97  2CA6               	goto	l3416
  4958     0C98                     u4670:
  4959     0C98                     l3410:
  4960     0C98  3000               	movlw	0
  4961     0C99  00A3               	movwf	___fladd@b+3
  4962     0C9A  3000               	movlw	0
  4963     0C9B  00A2               	movwf	___fladd@b+2
  4964     0C9C  3000               	movlw	0
  4965     0C9D  00A1               	movwf	___fladd@b+1
  4966     0C9E  3000               	movlw	0
  4967     0C9F  00A0               	movwf	___fladd@b
  4968     0CA0                     l3412:
  4969     0CA0  0832               	movf	___fladd@bexp,w
  4970     0CA1  1D03               	btfss	3,2
  4971     0CA2  2CA4               	goto	u4681
  4972     0CA3  2CA5               	goto	u4680
  4973     0CA4                     u4681:
  4974     0CA4  2CA6               	goto	l3416
  4975     0CA5                     u4680:
  4976     0CA5                     l3414:
  4977     0CA5  01B0               	clrf	___fladd@signs
  4978     0CA6                     l3416:
  4979     0CA6  1C32               	btfss	___fladd@bexp,0
  4980     0CA7  2CA9               	goto	u4691
  4981     0CA8  2CAA               	goto	u4690
  4982     0CA9                     u4691:
  4983     0CA9  2CAC               	goto	l3420
  4984     0CAA                     u4690:
  4985     0CAA                     l3418:
  4986     0CAA  17A2               	bsf	___fladd@b+2,7
  4987     0CAB  2CB0               	goto	l3422
  4988     0CAC                     l3420:
  4989     0CAC  307F               	movlw	127
  4990     0CAD  00FF               	movwf	btemp+1
  4991     0CAE  087F               	movf	btemp+1,w
  4992     0CAF  05A2               	andwf	___fladd@b+2,f
  4993     0CB0                     l3422:
  4994     0CB0  0832               	movf	___fladd@bexp,w
  4995     0CB1  00A8               	movwf	??___fladd
  4996     0CB2  1003               	clrc
  4997     0CB3  0C28               	rrf	??___fladd,w
  4998     0CB4  00A3               	movwf	___fladd@b+3
  4999     0CB5                     l3424:
  5000     0CB5  1FB0               	btfss	___fladd@signs,7
  5001     0CB6  2CB8               	goto	u4701
  5002     0CB7  2CB9               	goto	u4700
  5003     0CB8                     u4701:
  5004     0CB8  2CBA               	goto	l642
  5005     0CB9                     u4700:
  5006     0CB9                     l3426:
  5007     0CB9  17A3               	bsf	___fladd@b+3,7
  5008     0CBA                     l642:
  5009     0CBA                     l612:
  5010     0CBA  0008               	return
  5011     0CBB                     __end_of___fladd:
  5012                           
  5013                           	psect	text13
  5014     1468                     __ptext13:	
  5015 ;; *************** function _buzzer *****************
  5016 ;; Defined at:
  5017 ;;		line 38 in file "cont.c"
  5018 ;; Parameters:    Size  Location     Type
  5019 ;;		None
  5020 ;; Auto vars:     Size  Location     Type
  5021 ;;  p               2    2[BANK0 ] int 
  5022 ;; Return value:  Size  Location     Type
  5023 ;;                  1    wreg      void 
  5024 ;; Registers used:
  5025 ;;		wreg, status,2, btemp+1
  5026 ;; Tracked objects:
  5027 ;;		On entry : 0/0
  5028 ;;		On exit  : 0/0
  5029 ;;		Unchanged: 0/0
  5030 ;; Data sizes:     COMMON   BANK0   BANK1   BANK3   BANK2
  5031 ;;      Params:         0       0       0       0       0
  5032 ;;      Locals:         0       2       0       0       0
  5033 ;;      Temps:          0       2       0       0       0
  5034 ;;      Totals:         0       4       0       0       0
  5035 ;;Total ram usage:        4 bytes
  5036 ;; Hardware stack levels used: 1
  5037 ;; Hardware stack levels required when called: 1
  5038 ;; This function calls:
  5039 ;;		Nothing
  5040 ;; This function is called by:
  5041 ;;		_main
  5042 ;; This function uses a non-reentrant model
  5043 ;;
  5044                           
  5045     1468                     _buzzer:	
  5046                           ;psect for function _buzzer
  5047                           
  5048     1468                     l3764:	
  5049                           ;incstack = 0
  5050                           ; Regs used in _buzzer: [wreg+status,2+btemp+1]
  5051                           
  5052                           
  5053                           ;cont.c: 40:     for(int p=0;p<3;p++)
  5054     1468  1283               	bcf	3,5	;RP0=0, select bank0
  5055     1469  1303               	bcf	3,6	;RP1=0, select bank0
  5056     146A  01A2               	clrf	buzzer@p
  5057     146B  01A3               	clrf	buzzer@p+1
  5058     146C                     l95:
  5059                           
  5060                           ;cont.c: 41:     {;cont.c: 42:     PORTEbits.RE2=1;
  5061     146C  1283               	bcf	3,5	;RP0=0, select bank0
  5062     146D  1303               	bcf	3,6	;RP1=0, select bank0
  5063     146E  1509               	bsf	9,2	;volatile
  5064     146F                     l3770:
  5065                           
  5066                           ;cont.c: 43:     _delay((unsigned long)((5)*(20000000/4000.0)));
  5067     146F  3021               	movlw	33
  5068     1470  1283               	bcf	3,5	;RP0=0, select bank0
  5069     1471  1303               	bcf	3,6	;RP1=0, select bank0
  5070     1472  00A1               	movwf	??_buzzer+1
  5071     1473  3075               	movlw	117
  5072     1474  00A0               	movwf	??_buzzer
  5073     1475                     u5857:
  5074     1475  0BA0               	decfsz	??_buzzer,f
  5075     1476  2C75               	goto	u5857
  5076     1477  0BA1               	decfsz	??_buzzer+1,f
  5077     1478  2C75               	goto	u5857
  5078     1479  2C7A               	nop2
  5079     147A                     l3772:
  5080                           
  5081                           ;cont.c: 44:     PORTEbits.RE2=0;
  5082     147A  1283               	bcf	3,5	;RP0=0, select bank0
  5083     147B  1303               	bcf	3,6	;RP1=0, select bank0
  5084     147C  1109               	bcf	9,2	;volatile
  5085                           
  5086                           ;cont.c: 45:     _delay((unsigned long)((5)*(20000000/4000.0)));
  5087     147D  3021               	movlw	33
  5088     147E  1283               	bcf	3,5	;RP0=0, select bank0
  5089     147F  1303               	bcf	3,6	;RP1=0, select bank0
  5090     1480  00A1               	movwf	??_buzzer+1
  5091     1481  3075               	movlw	117
  5092     1482  00A0               	movwf	??_buzzer
  5093     1483                     u5867:
  5094     1483  0BA0               	decfsz	??_buzzer,f
  5095     1484  2C83               	goto	u5867
  5096     1485  0BA1               	decfsz	??_buzzer+1,f
  5097     1486  2C83               	goto	u5867
  5098     1487  2C88               	nop2
  5099                           
  5100                           ;cont.c: 46:     }
  5101     1488  3001               	movlw	1
  5102     1489  1283               	bcf	3,5	;RP0=0, select bank0
  5103     148A  1303               	bcf	3,6	;RP1=0, select bank0
  5104     148B  07A2               	addwf	buzzer@p,f
  5105     148C  1803               	skipnc
  5106     148D  0AA3               	incf	buzzer@p+1,f
  5107     148E  3000               	movlw	0
  5108     148F  07A3               	addwf	buzzer@p+1,f
  5109     1490                     l3774:
  5110     1490  0823               	movf	buzzer@p+1,w
  5111     1491  3A80               	xorlw	128
  5112     1492  00FF               	movwf	btemp+1
  5113     1493  3080               	movlw	128
  5114     1494  027F               	subwf	btemp+1,w
  5115     1495  1D03               	skipz
  5116     1496  2C99               	goto	u5515
  5117     1497  3003               	movlw	3
  5118     1498  0222               	subwf	buzzer@p,w
  5119     1499                     u5515:
  5120     1499  1C03               	skipc
  5121     149A  2C9C               	goto	u5511
  5122     149B  2C9D               	goto	u5510
  5123     149C                     u5511:
  5124     149C  2C6C               	goto	l95
  5125     149D                     u5510:
  5126     149D                     l97:
  5127     149D  0008               	return
  5128     149E                     __end_of_buzzer:
  5129                           
  5130                           	psect	text14
  5131     002A                     __ptext14:	
  5132 ;; *************** function _Lecture_temperature_ref *****************
  5133 ;; Defined at:
  5134 ;;		line 133 in file "cont.c"
  5135 ;; Parameters:    Size  Location     Type
  5136 ;;		None
  5137 ;; Auto vars:     Size  Location     Type
  5138 ;;		None
  5139 ;; Return value:  Size  Location     Type
  5140 ;;                  2   36[BANK0 ] int 
  5141 ;; Registers used:
  5142 ;;		wreg, fsr0l, fsr0h, status,2, status,0, btemp+1, pclath, cstack
  5143 ;; Tracked objects:
  5144 ;;		On entry : 0/0
  5145 ;;		On exit  : 0/0
  5146 ;;		Unchanged: 0/0
  5147 ;; Data sizes:     COMMON   BANK0   BANK1   BANK3   BANK2
  5148 ;;      Params:         0       2       0       0       0
  5149 ;;      Locals:         0       0       0       0       0
  5150 ;;      Temps:          0       6       0       0       0
  5151 ;;      Totals:         0       8       0       0       0
  5152 ;;Total ram usage:        8 bytes
  5153 ;; Hardware stack levels used: 1
  5154 ;; Hardware stack levels required when called: 4
  5155 ;; This function calls:
  5156 ;;		_EEPROM_Read
  5157 ;;		_EEPROM_Write
  5158 ;;		_Lcd_Cmd
  5159 ;;		_Lcd_Write_Char
  5160 ;;		_Lcd_Write_String
  5161 ;;		___fltol
  5162 ;;		___wmul
  5163 ;;		___xxtofl
  5164 ;; This function is called by:
  5165 ;;		_main
  5166 ;; This function uses a non-reentrant model
  5167 ;;
  5168                           
  5169     002A                     _Lecture_temperature_ref:	
  5170                           ;psect for function _Lecture_temperature_ref
  5171                           
  5172     002A                     l3790:	
  5173                           ;incstack = 0
  5174                           ; Regs used in _Lecture_temperature_ref: [wreg-fsr0h+status,2+status,0+btemp+1+pclath+cs
      +                          tack]
  5175                           
  5176                           
  5177                           ;cont.c: 134: while(Address<3)
  5178     002A  2D48               	goto	l4004
  5179     002B                     l140:
  5180                           
  5181                           ;cont.c: 135:  {;cont.c: 136:                 PORTBbits.RB0=1;PORTBbits.RB1=0;PORTBbits.
      +                          RB2=0;
  5182     002B  1283               	bcf	3,5	;RP0=0, select bank0
  5183     002C  1303               	bcf	3,6	;RP1=0, select bank0
  5184     002D  1406               	bsf	6,0	;volatile
  5185     002E  1086               	bcf	6,1	;volatile
  5186     002F  1106               	bcf	6,2	;volatile
  5187                           
  5188                           ;cont.c: 137:             if (PORTBbits.RB4==1)
  5189     0030  1E06               	btfss	6,4	;volatile
  5190     0031  2833               	goto	u5521
  5191     0032  2834               	goto	u5520
  5192     0033                     u5521:
  5193     0033  289A               	goto	l141
  5194     0034                     u5520:
  5195     0034                     l3792:
  5196                           
  5197                           ;cont.c: 138:    {;cont.c: 139:     EEPROM_Write(Address, '1');
  5198     0034  086C               	movf	_Address+1,w
  5199     0035  00A1               	movwf	EEPROM_Write@Address+1
  5200     0036  086B               	movf	_Address,w
  5201     0037  00A0               	movwf	EEPROM_Write@Address
  5202     0038  3031               	movlw	49
  5203     0039  00A2               	movwf	EEPROM_Write@Data
  5204     003A  160A  118A  23AD  120A  118A  	fcall	_EEPROM_Write
  5205     003F                     l3794:
  5206                           
  5207                           ;cont.c: 140:                 _delay((unsigned long)((1)*(20000000/4000.0)));
  5208     003F  3007               	movlw	7
  5209     0040  1283               	bcf	3,5	;RP0=0, select bank0
  5210     0041  1303               	bcf	3,6	;RP1=0, select bank0
  5211     0042  00C7               	movwf	??_Lecture_temperature_ref+1
  5212     0043  307C               	movlw	124
  5213     0044  00C6               	movwf	??_Lecture_temperature_ref
  5214     0045                     u5877:
  5215     0045  0BC6               	decfsz	??_Lecture_temperature_ref,f
  5216     0046  2845               	goto	u5877
  5217     0047  0BC7               	decfsz	??_Lecture_temperature_ref+1,f
  5218     0048  2845               	goto	u5877
  5219     0049  0000               	nop
  5220     004A                     l3796:
  5221                           
  5222                           ;cont.c: 141:                 k = EEPROM_Read(Address);
  5223     004A  1283               	bcf	3,5	;RP0=0, select bank0
  5224     004B  1303               	bcf	3,6	;RP1=0, select bank0
  5225     004C  086C               	movf	_Address+1,w
  5226     004D  00A1               	movwf	EEPROM_Read@Address+1
  5227     004E  086B               	movf	_Address,w
  5228     004F  00A0               	movwf	EEPROM_Read@Address
  5229     0050  120A  118A  27EA  120A  118A  	fcall	_EEPROM_Read
  5230     0055  1283               	bcf	3,5	;RP0=0, select bank0
  5231     0056  1303               	bcf	3,6	;RP1=0, select bank0
  5232     0057  00EF               	movwf	_k
  5233     0058                     l3798:
  5234                           
  5235                           ;cont.c: 142:                 _delay((unsigned long)((1)*(20000000/4000.0)));
  5236     0058  3007               	movlw	7
  5237     0059  1283               	bcf	3,5	;RP0=0, select bank0
  5238     005A  1303               	bcf	3,6	;RP1=0, select bank0
  5239     005B  00C7               	movwf	??_Lecture_temperature_ref+1
  5240     005C  307C               	movlw	124
  5241     005D  00C6               	movwf	??_Lecture_temperature_ref
  5242     005E                     u5887:
  5243     005E  0BC6               	decfsz	??_Lecture_temperature_ref,f
  5244     005F  285E               	goto	u5887
  5245     0060  0BC7               	decfsz	??_Lecture_temperature_ref+1,f
  5246     0061  285E               	goto	u5887
  5247     0062  0000               	nop
  5248     0063                     l3800:
  5249                           
  5250                           ;cont.c: 143:                 Lcd_Write_Char(k);
  5251     0063  1283               	bcf	3,5	;RP0=0, select bank0
  5252     0064  1303               	bcf	3,6	;RP1=0, select bank0
  5253     0065  086F               	movf	_k,w
  5254     0066  120A  158A  2006  120A  118A  	fcall	_Lcd_Write_Char
  5255     006B                     l3802:
  5256                           
  5257                           ;cont.c: 144:                 _delay((unsigned long)((1)*(20000000/4000.0)));
  5258     006B  3007               	movlw	7
  5259     006C  1283               	bcf	3,5	;RP0=0, select bank0
  5260     006D  1303               	bcf	3,6	;RP1=0, select bank0
  5261     006E  00C7               	movwf	??_Lecture_temperature_ref+1
  5262     006F  307C               	movlw	124
  5263     0070  00C6               	movwf	??_Lecture_temperature_ref
  5264     0071                     u5897:
  5265     0071  0BC6               	decfsz	??_Lecture_temperature_ref,f
  5266     0072  2871               	goto	u5897
  5267     0073  0BC7               	decfsz	??_Lecture_temperature_ref+1,f
  5268     0074  2871               	goto	u5897
  5269     0075  0000               	nop
  5270     0076                     l3804:
  5271                           
  5272                           ;cont.c: 145:                 tab[Address]=1;
  5273     0076  1283               	bcf	3,5	;RP0=0, select bank0
  5274     0077  1303               	bcf	3,6	;RP1=0, select bank0
  5275     0078  086B               	movf	_Address,w
  5276     0079  00C6               	movwf	??_Lecture_temperature_ref
  5277     007A  0746               	addwf	??_Lecture_temperature_ref,w
  5278     007B  3E59               	addlw	(low (_tab| 0))& (0+255)
  5279     007C  0084               	movwf	4
  5280     007D  3001               	movlw	1
  5281     007E  1383               	bcf	3,7	;select IRP bank0
  5282     007F  0080               	movwf	0
  5283     0080  0A84               	incf	4,f
  5284     0081  3000               	movlw	0
  5285     0082  0080               	movwf	0
  5286     0083                     l3806:
  5287                           
  5288                           ;cont.c: 146:                 _delay((unsigned long)((1)*(20000000/4000.0)));
  5289     0083  3007               	movlw	7
  5290     0084  1283               	bcf	3,5	;RP0=0, select bank0
  5291     0085  1303               	bcf	3,6	;RP1=0, select bank0
  5292     0086  00C7               	movwf	??_Lecture_temperature_ref+1
  5293     0087  307C               	movlw	124
  5294     0088  00C6               	movwf	??_Lecture_temperature_ref
  5295     0089                     u5907:
  5296     0089  0BC6               	decfsz	??_Lecture_temperature_ref,f
  5297     008A  2889               	goto	u5907
  5298     008B  0BC7               	decfsz	??_Lecture_temperature_ref+1,f
  5299     008C  2889               	goto	u5907
  5300     008D  0000               	nop
  5301     008E                     l3808:
  5302                           
  5303                           ;cont.c: 147:                 Address++;
  5304     008E  3001               	movlw	1
  5305     008F  1283               	bcf	3,5	;RP0=0, select bank0
  5306     0090  1303               	bcf	3,6	;RP1=0, select bank0
  5307     0091  07EB               	addwf	_Address,f
  5308     0092  1803               	skipnc
  5309     0093  0AEC               	incf	_Address+1,f
  5310     0094  3000               	movlw	0
  5311     0095  07EC               	addwf	_Address+1,f
  5312     0096                     l142:	
  5313                           ;cont.c: 148:                 while(PORTBbits.RB4==1);
  5314                           
  5315     0096  1A06               	btfsc	6,4	;volatile
  5316     0097  2899               	goto	u5531
  5317     0098  289A               	goto	u5530
  5318     0099                     u5531:
  5319     0099  2896               	goto	l142
  5320     009A                     u5530:
  5321     009A                     l141:	
  5322                           ;cont.c: 150:    }
  5323                           
  5324                           
  5325                           ;cont.c: 151:             if (PORTBbits.RB5==1)
  5326     009A  1E86               	btfss	6,5	;volatile
  5327     009B  289D               	goto	u5541
  5328     009C  289E               	goto	u5540
  5329     009D                     u5541:
  5330     009D  2904               	goto	l145
  5331     009E                     u5540:
  5332     009E                     l3810:
  5333                           
  5334                           ;cont.c: 152:    {;cont.c: 153:     EEPROM_Write(Address, '4');
  5335     009E  086C               	movf	_Address+1,w
  5336     009F  00A1               	movwf	EEPROM_Write@Address+1
  5337     00A0  086B               	movf	_Address,w
  5338     00A1  00A0               	movwf	EEPROM_Write@Address
  5339     00A2  3034               	movlw	52
  5340     00A3  00A2               	movwf	EEPROM_Write@Data
  5341     00A4  160A  118A  23AD  120A  118A  	fcall	_EEPROM_Write
  5342     00A9                     l3812:
  5343                           
  5344                           ;cont.c: 154:                 _delay((unsigned long)((1)*(20000000/4000.0)));
  5345     00A9  3007               	movlw	7
  5346     00AA  1283               	bcf	3,5	;RP0=0, select bank0
  5347     00AB  1303               	bcf	3,6	;RP1=0, select bank0
  5348     00AC  00C7               	movwf	??_Lecture_temperature_ref+1
  5349     00AD  307C               	movlw	124
  5350     00AE  00C6               	movwf	??_Lecture_temperature_ref
  5351     00AF                     u5917:
  5352     00AF  0BC6               	decfsz	??_Lecture_temperature_ref,f
  5353     00B0  28AF               	goto	u5917
  5354     00B1  0BC7               	decfsz	??_Lecture_temperature_ref+1,f
  5355     00B2  28AF               	goto	u5917
  5356     00B3  0000               	nop
  5357     00B4                     l3814:
  5358                           
  5359                           ;cont.c: 155:                 k = EEPROM_Read(Address);
  5360     00B4  1283               	bcf	3,5	;RP0=0, select bank0
  5361     00B5  1303               	bcf	3,6	;RP1=0, select bank0
  5362     00B6  086C               	movf	_Address+1,w
  5363     00B7  00A1               	movwf	EEPROM_Read@Address+1
  5364     00B8  086B               	movf	_Address,w
  5365     00B9  00A0               	movwf	EEPROM_Read@Address
  5366     00BA  120A  118A  27EA  120A  118A  	fcall	_EEPROM_Read
  5367     00BF  1283               	bcf	3,5	;RP0=0, select bank0
  5368     00C0  1303               	bcf	3,6	;RP1=0, select bank0
  5369     00C1  00EF               	movwf	_k
  5370     00C2                     l3816:
  5371                           
  5372                           ;cont.c: 156:                 _delay((unsigned long)((1)*(20000000/4000.0)));
  5373     00C2  3007               	movlw	7
  5374     00C3  1283               	bcf	3,5	;RP0=0, select bank0
  5375     00C4  1303               	bcf	3,6	;RP1=0, select bank0
  5376     00C5  00C7               	movwf	??_Lecture_temperature_ref+1
  5377     00C6  307C               	movlw	124
  5378     00C7  00C6               	movwf	??_Lecture_temperature_ref
  5379     00C8                     u5927:
  5380     00C8  0BC6               	decfsz	??_Lecture_temperature_ref,f
  5381     00C9  28C8               	goto	u5927
  5382     00CA  0BC7               	decfsz	??_Lecture_temperature_ref+1,f
  5383     00CB  28C8               	goto	u5927
  5384     00CC  0000               	nop
  5385     00CD                     l3818:
  5386                           
  5387                           ;cont.c: 157:                 Lcd_Write_Char(k);
  5388     00CD  1283               	bcf	3,5	;RP0=0, select bank0
  5389     00CE  1303               	bcf	3,6	;RP1=0, select bank0
  5390     00CF  086F               	movf	_k,w
  5391     00D0  120A  158A  2006  120A  118A  	fcall	_Lcd_Write_Char
  5392     00D5                     l3820:
  5393                           
  5394                           ;cont.c: 158:                 _delay((unsigned long)((1)*(20000000/4000.0)));
  5395     00D5  3007               	movlw	7
  5396     00D6  1283               	bcf	3,5	;RP0=0, select bank0
  5397     00D7  1303               	bcf	3,6	;RP1=0, select bank0
  5398     00D8  00C7               	movwf	??_Lecture_temperature_ref+1
  5399     00D9  307C               	movlw	124
  5400     00DA  00C6               	movwf	??_Lecture_temperature_ref
  5401     00DB                     u5937:
  5402     00DB  0BC6               	decfsz	??_Lecture_temperature_ref,f
  5403     00DC  28DB               	goto	u5937
  5404     00DD  0BC7               	decfsz	??_Lecture_temperature_ref+1,f
  5405     00DE  28DB               	goto	u5937
  5406     00DF  0000               	nop
  5407     00E0                     l3822:
  5408                           
  5409                           ;cont.c: 159:                 tab[Address]=4;
  5410     00E0  1283               	bcf	3,5	;RP0=0, select bank0
  5411     00E1  1303               	bcf	3,6	;RP1=0, select bank0
  5412     00E2  086B               	movf	_Address,w
  5413     00E3  00C6               	movwf	??_Lecture_temperature_ref
  5414     00E4  0746               	addwf	??_Lecture_temperature_ref,w
  5415     00E5  3E59               	addlw	(low (_tab| 0))& (0+255)
  5416     00E6  0084               	movwf	4
  5417     00E7  3004               	movlw	4
  5418     00E8  1383               	bcf	3,7	;select IRP bank0
  5419     00E9  0080               	movwf	0
  5420     00EA  0A84               	incf	4,f
  5421     00EB  3000               	movlw	0
  5422     00EC  0080               	movwf	0
  5423     00ED                     l3824:
  5424                           
  5425                           ;cont.c: 160:                 _delay((unsigned long)((1)*(20000000/4000.0)));
  5426     00ED  3007               	movlw	7
  5427     00EE  1283               	bcf	3,5	;RP0=0, select bank0
  5428     00EF  1303               	bcf	3,6	;RP1=0, select bank0
  5429     00F0  00C7               	movwf	??_Lecture_temperature_ref+1
  5430     00F1  307C               	movlw	124
  5431     00F2  00C6               	movwf	??_Lecture_temperature_ref
  5432     00F3                     u5947:
  5433     00F3  0BC6               	decfsz	??_Lecture_temperature_ref,f
  5434     00F4  28F3               	goto	u5947
  5435     00F5  0BC7               	decfsz	??_Lecture_temperature_ref+1,f
  5436     00F6  28F3               	goto	u5947
  5437     00F7  0000               	nop
  5438     00F8                     l3826:
  5439                           
  5440                           ;cont.c: 161:                 Address++;
  5441     00F8  3001               	movlw	1
  5442     00F9  1283               	bcf	3,5	;RP0=0, select bank0
  5443     00FA  1303               	bcf	3,6	;RP1=0, select bank0
  5444     00FB  07EB               	addwf	_Address,f
  5445     00FC  1803               	skipnc
  5446     00FD  0AEC               	incf	_Address+1,f
  5447     00FE  3000               	movlw	0
  5448     00FF  07EC               	addwf	_Address+1,f
  5449     0100                     l146:	
  5450                           ;cont.c: 162:                 while(PORTBbits.RB5==1);
  5451                           
  5452     0100  1A86               	btfsc	6,5	;volatile
  5453     0101  2903               	goto	u5551
  5454     0102  2904               	goto	u5550
  5455     0103                     u5551:
  5456     0103  2900               	goto	l146
  5457     0104                     u5550:
  5458     0104                     l145:	
  5459                           ;cont.c: 164:    }
  5460                           
  5461                           
  5462                           ;cont.c: 165:             if (PORTBbits.RB6==1)
  5463     0104  1F06               	btfss	6,6	;volatile
  5464     0105  2907               	goto	u5561
  5465     0106  2908               	goto	u5560
  5466     0107                     u5561:
  5467     0107  296E               	goto	l149
  5468     0108                     u5560:
  5469     0108                     l3828:
  5470                           
  5471                           ;cont.c: 166:    {;cont.c: 167:     EEPROM_Write(Address, '7');
  5472     0108  086C               	movf	_Address+1,w
  5473     0109  00A1               	movwf	EEPROM_Write@Address+1
  5474     010A  086B               	movf	_Address,w
  5475     010B  00A0               	movwf	EEPROM_Write@Address
  5476     010C  3037               	movlw	55
  5477     010D  00A2               	movwf	EEPROM_Write@Data
  5478     010E  160A  118A  23AD  120A  118A  	fcall	_EEPROM_Write
  5479     0113                     l3830:
  5480                           
  5481                           ;cont.c: 168:                 _delay((unsigned long)((1)*(20000000/4000.0)));
  5482     0113  3007               	movlw	7
  5483     0114  1283               	bcf	3,5	;RP0=0, select bank0
  5484     0115  1303               	bcf	3,6	;RP1=0, select bank0
  5485     0116  00C7               	movwf	??_Lecture_temperature_ref+1
  5486     0117  307C               	movlw	124
  5487     0118  00C6               	movwf	??_Lecture_temperature_ref
  5488     0119                     u5957:
  5489     0119  0BC6               	decfsz	??_Lecture_temperature_ref,f
  5490     011A  2919               	goto	u5957
  5491     011B  0BC7               	decfsz	??_Lecture_temperature_ref+1,f
  5492     011C  2919               	goto	u5957
  5493     011D  0000               	nop
  5494     011E                     l3832:
  5495                           
  5496                           ;cont.c: 169:                 k = EEPROM_Read(Address);
  5497     011E  1283               	bcf	3,5	;RP0=0, select bank0
  5498     011F  1303               	bcf	3,6	;RP1=0, select bank0
  5499     0120  086C               	movf	_Address+1,w
  5500     0121  00A1               	movwf	EEPROM_Read@Address+1
  5501     0122  086B               	movf	_Address,w
  5502     0123  00A0               	movwf	EEPROM_Read@Address
  5503     0124  120A  118A  27EA  120A  118A  	fcall	_EEPROM_Read
  5504     0129  1283               	bcf	3,5	;RP0=0, select bank0
  5505     012A  1303               	bcf	3,6	;RP1=0, select bank0
  5506     012B  00EF               	movwf	_k
  5507     012C                     l3834:
  5508                           
  5509                           ;cont.c: 170:                 _delay((unsigned long)((1)*(20000000/4000.0)));
  5510     012C  3007               	movlw	7
  5511     012D  1283               	bcf	3,5	;RP0=0, select bank0
  5512     012E  1303               	bcf	3,6	;RP1=0, select bank0
  5513     012F  00C7               	movwf	??_Lecture_temperature_ref+1
  5514     0130  307C               	movlw	124
  5515     0131  00C6               	movwf	??_Lecture_temperature_ref
  5516     0132                     u5967:
  5517     0132  0BC6               	decfsz	??_Lecture_temperature_ref,f
  5518     0133  2932               	goto	u5967
  5519     0134  0BC7               	decfsz	??_Lecture_temperature_ref+1,f
  5520     0135  2932               	goto	u5967
  5521     0136  0000               	nop
  5522     0137                     l3836:
  5523                           
  5524                           ;cont.c: 171:                 Lcd_Write_Char(k);
  5525     0137  1283               	bcf	3,5	;RP0=0, select bank0
  5526     0138  1303               	bcf	3,6	;RP1=0, select bank0
  5527     0139  086F               	movf	_k,w
  5528     013A  120A  158A  2006  120A  118A  	fcall	_Lcd_Write_Char
  5529     013F                     l3838:
  5530                           
  5531                           ;cont.c: 172:                 _delay((unsigned long)((1)*(20000000/4000.0)));
  5532     013F  3007               	movlw	7
  5533     0140  1283               	bcf	3,5	;RP0=0, select bank0
  5534     0141  1303               	bcf	3,6	;RP1=0, select bank0
  5535     0142  00C7               	movwf	??_Lecture_temperature_ref+1
  5536     0143  307C               	movlw	124
  5537     0144  00C6               	movwf	??_Lecture_temperature_ref
  5538     0145                     u5977:
  5539     0145  0BC6               	decfsz	??_Lecture_temperature_ref,f
  5540     0146  2945               	goto	u5977
  5541     0147  0BC7               	decfsz	??_Lecture_temperature_ref+1,f
  5542     0148  2945               	goto	u5977
  5543     0149  0000               	nop
  5544     014A                     l3840:
  5545                           
  5546                           ;cont.c: 173:                 tab[Address]=7;
  5547     014A  1283               	bcf	3,5	;RP0=0, select bank0
  5548     014B  1303               	bcf	3,6	;RP1=0, select bank0
  5549     014C  086B               	movf	_Address,w
  5550     014D  00C6               	movwf	??_Lecture_temperature_ref
  5551     014E  0746               	addwf	??_Lecture_temperature_ref,w
  5552     014F  3E59               	addlw	(low (_tab| 0))& (0+255)
  5553     0150  0084               	movwf	4
  5554     0151  3007               	movlw	7
  5555     0152  1383               	bcf	3,7	;select IRP bank0
  5556     0153  0080               	movwf	0
  5557     0154  0A84               	incf	4,f
  5558     0155  3000               	movlw	0
  5559     0156  0080               	movwf	0
  5560     0157                     l3842:
  5561                           
  5562                           ;cont.c: 174:                 _delay((unsigned long)((1)*(20000000/4000.0)));
  5563     0157  3007               	movlw	7
  5564     0158  1283               	bcf	3,5	;RP0=0, select bank0
  5565     0159  1303               	bcf	3,6	;RP1=0, select bank0
  5566     015A  00C7               	movwf	??_Lecture_temperature_ref+1
  5567     015B  307C               	movlw	124
  5568     015C  00C6               	movwf	??_Lecture_temperature_ref
  5569     015D                     u5987:
  5570     015D  0BC6               	decfsz	??_Lecture_temperature_ref,f
  5571     015E  295D               	goto	u5987
  5572     015F  0BC7               	decfsz	??_Lecture_temperature_ref+1,f
  5573     0160  295D               	goto	u5987
  5574     0161  0000               	nop
  5575     0162                     l3844:
  5576                           
  5577                           ;cont.c: 175:                 Address++;
  5578     0162  3001               	movlw	1
  5579     0163  1283               	bcf	3,5	;RP0=0, select bank0
  5580     0164  1303               	bcf	3,6	;RP1=0, select bank0
  5581     0165  07EB               	addwf	_Address,f
  5582     0166  1803               	skipnc
  5583     0167  0AEC               	incf	_Address+1,f
  5584     0168  3000               	movlw	0
  5585     0169  07EC               	addwf	_Address+1,f
  5586     016A                     l150:	
  5587                           ;cont.c: 176:                 while(PORTBbits.RB6==1);
  5588                           
  5589     016A  1B06               	btfsc	6,6	;volatile
  5590     016B  296D               	goto	u5571
  5591     016C  296E               	goto	u5570
  5592     016D                     u5571:
  5593     016D  296A               	goto	l150
  5594     016E                     u5570:
  5595     016E                     l149:	
  5596                           ;cont.c: 177:    }
  5597                           
  5598                           
  5599                           ;cont.c: 178:    if (PORTBbits.RB7==1)
  5600     016E  1F86               	btfss	6,7	;volatile
  5601     016F  2971               	goto	u5581
  5602     0170  2972               	goto	u5580
  5603     0171                     u5581:
  5604     0171  29C0               	goto	l153
  5605     0172                     u5580:
  5606     0172                     l3846:
  5607                           
  5608                           ;cont.c: 179:    {;cont.c: 180:     EEPROM_Write(Address, '*');
  5609     0172  086C               	movf	_Address+1,w
  5610     0173  00A1               	movwf	EEPROM_Write@Address+1
  5611     0174  086B               	movf	_Address,w
  5612     0175  00A0               	movwf	EEPROM_Write@Address
  5613     0176  302A               	movlw	42
  5614     0177  00A2               	movwf	EEPROM_Write@Data
  5615     0178  160A  118A  23AD  120A  118A  	fcall	_EEPROM_Write
  5616     017D                     l3848:
  5617                           
  5618                           ;cont.c: 181:                 _delay((unsigned long)((1)*(20000000/4000.0)));
  5619     017D  3007               	movlw	7
  5620     017E  1283               	bcf	3,5	;RP0=0, select bank0
  5621     017F  1303               	bcf	3,6	;RP1=0, select bank0
  5622     0180  00C7               	movwf	??_Lecture_temperature_ref+1
  5623     0181  307C               	movlw	124
  5624     0182  00C6               	movwf	??_Lecture_temperature_ref
  5625     0183                     u5997:
  5626     0183  0BC6               	decfsz	??_Lecture_temperature_ref,f
  5627     0184  2983               	goto	u5997
  5628     0185  0BC7               	decfsz	??_Lecture_temperature_ref+1,f
  5629     0186  2983               	goto	u5997
  5630     0187  0000               	nop
  5631     0188                     l3850:
  5632                           
  5633                           ;cont.c: 182:                 k = EEPROM_Read(Address);
  5634     0188  1283               	bcf	3,5	;RP0=0, select bank0
  5635     0189  1303               	bcf	3,6	;RP1=0, select bank0
  5636     018A  086C               	movf	_Address+1,w
  5637     018B  00A1               	movwf	EEPROM_Read@Address+1
  5638     018C  086B               	movf	_Address,w
  5639     018D  00A0               	movwf	EEPROM_Read@Address
  5640     018E  120A  118A  27EA  120A  118A  	fcall	_EEPROM_Read
  5641     0193  1283               	bcf	3,5	;RP0=0, select bank0
  5642     0194  1303               	bcf	3,6	;RP1=0, select bank0
  5643     0195  00EF               	movwf	_k
  5644     0196                     l3852:
  5645                           
  5646                           ;cont.c: 183:                 _delay((unsigned long)((1)*(20000000/4000.0)));
  5647     0196  3007               	movlw	7
  5648     0197  1283               	bcf	3,5	;RP0=0, select bank0
  5649     0198  1303               	bcf	3,6	;RP1=0, select bank0
  5650     0199  00C7               	movwf	??_Lecture_temperature_ref+1
  5651     019A  307C               	movlw	124
  5652     019B  00C6               	movwf	??_Lecture_temperature_ref
  5653     019C                     u6007:
  5654     019C  0BC6               	decfsz	??_Lecture_temperature_ref,f
  5655     019D  299C               	goto	u6007
  5656     019E  0BC7               	decfsz	??_Lecture_temperature_ref+1,f
  5657     019F  299C               	goto	u6007
  5658     01A0  0000               	nop
  5659     01A1                     l3854:
  5660                           
  5661                           ;cont.c: 184:                 Lcd_Write_Char(k);
  5662     01A1  1283               	bcf	3,5	;RP0=0, select bank0
  5663     01A2  1303               	bcf	3,6	;RP1=0, select bank0
  5664     01A3  086F               	movf	_k,w
  5665     01A4  120A  158A  2006  120A  118A  	fcall	_Lcd_Write_Char
  5666     01A9                     l3856:
  5667                           
  5668                           ;cont.c: 185:                 _delay((unsigned long)((1)*(20000000/4000.0)));
  5669     01A9  3007               	movlw	7
  5670     01AA  1283               	bcf	3,5	;RP0=0, select bank0
  5671     01AB  1303               	bcf	3,6	;RP1=0, select bank0
  5672     01AC  00C7               	movwf	??_Lecture_temperature_ref+1
  5673     01AD  307C               	movlw	124
  5674     01AE  00C6               	movwf	??_Lecture_temperature_ref
  5675     01AF                     u6017:
  5676     01AF  0BC6               	decfsz	??_Lecture_temperature_ref,f
  5677     01B0  29AF               	goto	u6017
  5678     01B1  0BC7               	decfsz	??_Lecture_temperature_ref+1,f
  5679     01B2  29AF               	goto	u6017
  5680     01B3  0000               	nop
  5681     01B4                     l3858:
  5682                           
  5683                           ;cont.c: 186:                 Address++;
  5684     01B4  3001               	movlw	1
  5685     01B5  1283               	bcf	3,5	;RP0=0, select bank0
  5686     01B6  1303               	bcf	3,6	;RP1=0, select bank0
  5687     01B7  07EB               	addwf	_Address,f
  5688     01B8  1803               	skipnc
  5689     01B9  0AEC               	incf	_Address+1,f
  5690     01BA  3000               	movlw	0
  5691     01BB  07EC               	addwf	_Address+1,f
  5692     01BC                     l154:	
  5693                           ;cont.c: 187:                 while(PORTBbits.RB7==1);
  5694                           
  5695     01BC  1B86               	btfsc	6,7	;volatile
  5696     01BD  29BF               	goto	u5591
  5697     01BE  29C0               	goto	u5590
  5698     01BF                     u5591:
  5699     01BF  29BC               	goto	l154
  5700     01C0                     u5590:
  5701     01C0                     l153:	
  5702                           ;cont.c: 189:    }
  5703                           
  5704                           
  5705                           ;cont.c: 191:         PORTBbits.RB0=0;PORTBbits.RB1=1;PORTBbits.RB2=0;
  5706     01C0  1006               	bcf	6,0	;volatile
  5707     01C1  1486               	bsf	6,1	;volatile
  5708     01C2  1106               	bcf	6,2	;volatile
  5709                           
  5710                           ;cont.c: 193:    if (PORTBbits.RB4==1)
  5711     01C3  1E06               	btfss	6,4	;volatile
  5712     01C4  29C6               	goto	u5601
  5713     01C5  29C7               	goto	u5600
  5714     01C6                     u5601:
  5715     01C6  2A2D               	goto	l157
  5716     01C7                     u5600:
  5717     01C7                     l3860:
  5718                           
  5719                           ;cont.c: 194:    {;cont.c: 195:     EEPROM_Write(Address, '2');
  5720     01C7  086C               	movf	_Address+1,w
  5721     01C8  00A1               	movwf	EEPROM_Write@Address+1
  5722     01C9  086B               	movf	_Address,w
  5723     01CA  00A0               	movwf	EEPROM_Write@Address
  5724     01CB  3032               	movlw	50
  5725     01CC  00A2               	movwf	EEPROM_Write@Data
  5726     01CD  160A  118A  23AD  120A  118A  	fcall	_EEPROM_Write
  5727     01D2                     l3862:
  5728                           
  5729                           ;cont.c: 196:                 _delay((unsigned long)((1)*(20000000/4000.0)));
  5730     01D2  3007               	movlw	7
  5731     01D3  1283               	bcf	3,5	;RP0=0, select bank0
  5732     01D4  1303               	bcf	3,6	;RP1=0, select bank0
  5733     01D5  00C7               	movwf	??_Lecture_temperature_ref+1
  5734     01D6  307C               	movlw	124
  5735     01D7  00C6               	movwf	??_Lecture_temperature_ref
  5736     01D8                     u6027:
  5737     01D8  0BC6               	decfsz	??_Lecture_temperature_ref,f
  5738     01D9  29D8               	goto	u6027
  5739     01DA  0BC7               	decfsz	??_Lecture_temperature_ref+1,f
  5740     01DB  29D8               	goto	u6027
  5741     01DC  0000               	nop
  5742     01DD                     l3864:
  5743                           
  5744                           ;cont.c: 197:                 k = EEPROM_Read(Address);
  5745     01DD  1283               	bcf	3,5	;RP0=0, select bank0
  5746     01DE  1303               	bcf	3,6	;RP1=0, select bank0
  5747     01DF  086C               	movf	_Address+1,w
  5748     01E0  00A1               	movwf	EEPROM_Read@Address+1
  5749     01E1  086B               	movf	_Address,w
  5750     01E2  00A0               	movwf	EEPROM_Read@Address
  5751     01E3  120A  118A  27EA  120A  118A  	fcall	_EEPROM_Read
  5752     01E8  1283               	bcf	3,5	;RP0=0, select bank0
  5753     01E9  1303               	bcf	3,6	;RP1=0, select bank0
  5754     01EA  00EF               	movwf	_k
  5755     01EB                     l3866:
  5756                           
  5757                           ;cont.c: 198:                 _delay((unsigned long)((1)*(20000000/4000.0)));
  5758     01EB  3007               	movlw	7
  5759     01EC  1283               	bcf	3,5	;RP0=0, select bank0
  5760     01ED  1303               	bcf	3,6	;RP1=0, select bank0
  5761     01EE  00C7               	movwf	??_Lecture_temperature_ref+1
  5762     01EF  307C               	movlw	124
  5763     01F0  00C6               	movwf	??_Lecture_temperature_ref
  5764     01F1                     u6037:
  5765     01F1  0BC6               	decfsz	??_Lecture_temperature_ref,f
  5766     01F2  29F1               	goto	u6037
  5767     01F3  0BC7               	decfsz	??_Lecture_temperature_ref+1,f
  5768     01F4  29F1               	goto	u6037
  5769     01F5  0000               	nop
  5770     01F6                     l3868:
  5771                           
  5772                           ;cont.c: 199:                 Lcd_Write_Char(k);
  5773     01F6  1283               	bcf	3,5	;RP0=0, select bank0
  5774     01F7  1303               	bcf	3,6	;RP1=0, select bank0
  5775     01F8  086F               	movf	_k,w
  5776     01F9  120A  158A  2006  120A  118A  	fcall	_Lcd_Write_Char
  5777     01FE                     l3870:
  5778                           
  5779                           ;cont.c: 200:                 _delay((unsigned long)((1)*(20000000/4000.0)));
  5780     01FE  3007               	movlw	7
  5781     01FF  1283               	bcf	3,5	;RP0=0, select bank0
  5782     0200  1303               	bcf	3,6	;RP1=0, select bank0
  5783     0201  00C7               	movwf	??_Lecture_temperature_ref+1
  5784     0202  307C               	movlw	124
  5785     0203  00C6               	movwf	??_Lecture_temperature_ref
  5786     0204                     u6047:
  5787     0204  0BC6               	decfsz	??_Lecture_temperature_ref,f
  5788     0205  2A04               	goto	u6047
  5789     0206  0BC7               	decfsz	??_Lecture_temperature_ref+1,f
  5790     0207  2A04               	goto	u6047
  5791     0208  0000               	nop
  5792     0209                     l3872:
  5793                           
  5794                           ;cont.c: 201:                 tab[Address]=2;
  5795     0209  1283               	bcf	3,5	;RP0=0, select bank0
  5796     020A  1303               	bcf	3,6	;RP1=0, select bank0
  5797     020B  086B               	movf	_Address,w
  5798     020C  00C6               	movwf	??_Lecture_temperature_ref
  5799     020D  0746               	addwf	??_Lecture_temperature_ref,w
  5800     020E  3E59               	addlw	(low (_tab| 0))& (0+255)
  5801     020F  0084               	movwf	4
  5802     0210  3002               	movlw	2
  5803     0211  1383               	bcf	3,7	;select IRP bank0
  5804     0212  0080               	movwf	0
  5805     0213  0A84               	incf	4,f
  5806     0214  3000               	movlw	0
  5807     0215  0080               	movwf	0
  5808     0216                     l3874:
  5809                           
  5810                           ;cont.c: 202:                 _delay((unsigned long)((1)*(20000000/4000.0)));
  5811     0216  3007               	movlw	7
  5812     0217  1283               	bcf	3,5	;RP0=0, select bank0
  5813     0218  1303               	bcf	3,6	;RP1=0, select bank0
  5814     0219  00C7               	movwf	??_Lecture_temperature_ref+1
  5815     021A  307C               	movlw	124
  5816     021B  00C6               	movwf	??_Lecture_temperature_ref
  5817     021C                     u6057:
  5818     021C  0BC6               	decfsz	??_Lecture_temperature_ref,f
  5819     021D  2A1C               	goto	u6057
  5820     021E  0BC7               	decfsz	??_Lecture_temperature_ref+1,f
  5821     021F  2A1C               	goto	u6057
  5822     0220  0000               	nop
  5823     0221                     l3876:
  5824                           
  5825                           ;cont.c: 203:                 Address++;
  5826     0221  3001               	movlw	1
  5827     0222  1283               	bcf	3,5	;RP0=0, select bank0
  5828     0223  1303               	bcf	3,6	;RP1=0, select bank0
  5829     0224  07EB               	addwf	_Address,f
  5830     0225  1803               	skipnc
  5831     0226  0AEC               	incf	_Address+1,f
  5832     0227  3000               	movlw	0
  5833     0228  07EC               	addwf	_Address+1,f
  5834     0229                     l158:	
  5835                           ;cont.c: 204:                 while(PORTBbits.RB4==1);
  5836                           
  5837     0229  1A06               	btfsc	6,4	;volatile
  5838     022A  2A2C               	goto	u5611
  5839     022B  2A2D               	goto	u5610
  5840     022C                     u5611:
  5841     022C  2A29               	goto	l158
  5842     022D                     u5610:
  5843     022D                     l157:	
  5844                           ;cont.c: 205:    }
  5845                           
  5846                           
  5847                           ;cont.c: 206:    if (PORTBbits.RB5==1)
  5848     022D  1E86               	btfss	6,5	;volatile
  5849     022E  2A30               	goto	u5621
  5850     022F  2A31               	goto	u5620
  5851     0230                     u5621:
  5852     0230  2A97               	goto	l161
  5853     0231                     u5620:
  5854     0231                     l3878:
  5855                           
  5856                           ;cont.c: 207:    {;cont.c: 208:     EEPROM_Write(Address, '5');
  5857     0231  086C               	movf	_Address+1,w
  5858     0232  00A1               	movwf	EEPROM_Write@Address+1
  5859     0233  086B               	movf	_Address,w
  5860     0234  00A0               	movwf	EEPROM_Write@Address
  5861     0235  3035               	movlw	53
  5862     0236  00A2               	movwf	EEPROM_Write@Data
  5863     0237  160A  118A  23AD  120A  118A  	fcall	_EEPROM_Write
  5864     023C                     l3880:
  5865                           
  5866                           ;cont.c: 209:                 _delay((unsigned long)((1)*(20000000/4000.0)));
  5867     023C  3007               	movlw	7
  5868     023D  1283               	bcf	3,5	;RP0=0, select bank0
  5869     023E  1303               	bcf	3,6	;RP1=0, select bank0
  5870     023F  00C7               	movwf	??_Lecture_temperature_ref+1
  5871     0240  307C               	movlw	124
  5872     0241  00C6               	movwf	??_Lecture_temperature_ref
  5873     0242                     u6067:
  5874     0242  0BC6               	decfsz	??_Lecture_temperature_ref,f
  5875     0243  2A42               	goto	u6067
  5876     0244  0BC7               	decfsz	??_Lecture_temperature_ref+1,f
  5877     0245  2A42               	goto	u6067
  5878     0246  0000               	nop
  5879     0247                     l3882:
  5880                           
  5881                           ;cont.c: 210:                 k = EEPROM_Read(Address);
  5882     0247  1283               	bcf	3,5	;RP0=0, select bank0
  5883     0248  1303               	bcf	3,6	;RP1=0, select bank0
  5884     0249  086C               	movf	_Address+1,w
  5885     024A  00A1               	movwf	EEPROM_Read@Address+1
  5886     024B  086B               	movf	_Address,w
  5887     024C  00A0               	movwf	EEPROM_Read@Address
  5888     024D  120A  118A  27EA  120A  118A  	fcall	_EEPROM_Read
  5889     0252  1283               	bcf	3,5	;RP0=0, select bank0
  5890     0253  1303               	bcf	3,6	;RP1=0, select bank0
  5891     0254  00EF               	movwf	_k
  5892     0255                     l3884:
  5893                           
  5894                           ;cont.c: 211:                 _delay((unsigned long)((1)*(20000000/4000.0)));
  5895     0255  3007               	movlw	7
  5896     0256  1283               	bcf	3,5	;RP0=0, select bank0
  5897     0257  1303               	bcf	3,6	;RP1=0, select bank0
  5898     0258  00C7               	movwf	??_Lecture_temperature_ref+1
  5899     0259  307C               	movlw	124
  5900     025A  00C6               	movwf	??_Lecture_temperature_ref
  5901     025B                     u6077:
  5902     025B  0BC6               	decfsz	??_Lecture_temperature_ref,f
  5903     025C  2A5B               	goto	u6077
  5904     025D  0BC7               	decfsz	??_Lecture_temperature_ref+1,f
  5905     025E  2A5B               	goto	u6077
  5906     025F  0000               	nop
  5907     0260                     l3886:
  5908                           
  5909                           ;cont.c: 212:                 Lcd_Write_Char(k);
  5910     0260  1283               	bcf	3,5	;RP0=0, select bank0
  5911     0261  1303               	bcf	3,6	;RP1=0, select bank0
  5912     0262  086F               	movf	_k,w
  5913     0263  120A  158A  2006  120A  118A  	fcall	_Lcd_Write_Char
  5914     0268                     l3888:
  5915                           
  5916                           ;cont.c: 213:                 _delay((unsigned long)((1)*(20000000/4000.0)));
  5917     0268  3007               	movlw	7
  5918     0269  1283               	bcf	3,5	;RP0=0, select bank0
  5919     026A  1303               	bcf	3,6	;RP1=0, select bank0
  5920     026B  00C7               	movwf	??_Lecture_temperature_ref+1
  5921     026C  307C               	movlw	124
  5922     026D  00C6               	movwf	??_Lecture_temperature_ref
  5923     026E                     u6087:
  5924     026E  0BC6               	decfsz	??_Lecture_temperature_ref,f
  5925     026F  2A6E               	goto	u6087
  5926     0270  0BC7               	decfsz	??_Lecture_temperature_ref+1,f
  5927     0271  2A6E               	goto	u6087
  5928     0272  0000               	nop
  5929     0273                     l3890:
  5930                           
  5931                           ;cont.c: 214:                 tab[Address]=5;
  5932     0273  1283               	bcf	3,5	;RP0=0, select bank0
  5933     0274  1303               	bcf	3,6	;RP1=0, select bank0
  5934     0275  086B               	movf	_Address,w
  5935     0276  00C6               	movwf	??_Lecture_temperature_ref
  5936     0277  0746               	addwf	??_Lecture_temperature_ref,w
  5937     0278  3E59               	addlw	(low (_tab| 0))& (0+255)
  5938     0279  0084               	movwf	4
  5939     027A  3005               	movlw	5
  5940     027B  1383               	bcf	3,7	;select IRP bank0
  5941     027C  0080               	movwf	0
  5942     027D  0A84               	incf	4,f
  5943     027E  3000               	movlw	0
  5944     027F  0080               	movwf	0
  5945     0280                     l3892:
  5946                           
  5947                           ;cont.c: 215:                 _delay((unsigned long)((1)*(20000000/4000.0)));
  5948     0280  3007               	movlw	7
  5949     0281  1283               	bcf	3,5	;RP0=0, select bank0
  5950     0282  1303               	bcf	3,6	;RP1=0, select bank0
  5951     0283  00C7               	movwf	??_Lecture_temperature_ref+1
  5952     0284  307C               	movlw	124
  5953     0285  00C6               	movwf	??_Lecture_temperature_ref
  5954     0286                     u6097:
  5955     0286  0BC6               	decfsz	??_Lecture_temperature_ref,f
  5956     0287  2A86               	goto	u6097
  5957     0288  0BC7               	decfsz	??_Lecture_temperature_ref+1,f
  5958     0289  2A86               	goto	u6097
  5959     028A  0000               	nop
  5960     028B                     l3894:
  5961                           
  5962                           ;cont.c: 216:                 Address++;
  5963     028B  3001               	movlw	1
  5964     028C  1283               	bcf	3,5	;RP0=0, select bank0
  5965     028D  1303               	bcf	3,6	;RP1=0, select bank0
  5966     028E  07EB               	addwf	_Address,f
  5967     028F  1803               	skipnc
  5968     0290  0AEC               	incf	_Address+1,f
  5969     0291  3000               	movlw	0
  5970     0292  07EC               	addwf	_Address+1,f
  5971     0293                     l162:	
  5972                           ;cont.c: 217:                 while(PORTBbits.RB5==1);
  5973                           
  5974     0293  1A86               	btfsc	6,5	;volatile
  5975     0294  2A96               	goto	u5631
  5976     0295  2A97               	goto	u5630
  5977     0296                     u5631:
  5978     0296  2A93               	goto	l162
  5979     0297                     u5630:
  5980     0297                     l161:	
  5981                           ;cont.c: 218:    }
  5982                           
  5983                           
  5984                           ;cont.c: 219:    if (PORTBbits.RB6==1)
  5985     0297  1F06               	btfss	6,6	;volatile
  5986     0298  2A9A               	goto	u5641
  5987     0299  2A9B               	goto	u5640
  5988     029A                     u5641:
  5989     029A  2B01               	goto	l165
  5990     029B                     u5640:
  5991     029B                     l3896:
  5992                           
  5993                           ;cont.c: 220:    {;cont.c: 221:     EEPROM_Write(Address, '8');
  5994     029B  086C               	movf	_Address+1,w
  5995     029C  00A1               	movwf	EEPROM_Write@Address+1
  5996     029D  086B               	movf	_Address,w
  5997     029E  00A0               	movwf	EEPROM_Write@Address
  5998     029F  3038               	movlw	56
  5999     02A0  00A2               	movwf	EEPROM_Write@Data
  6000     02A1  160A  118A  23AD  120A  118A  	fcall	_EEPROM_Write
  6001     02A6                     l3898:
  6002                           
  6003                           ;cont.c: 222:                 _delay((unsigned long)((1)*(20000000/4000.0)));
  6004     02A6  3007               	movlw	7
  6005     02A7  1283               	bcf	3,5	;RP0=0, select bank0
  6006     02A8  1303               	bcf	3,6	;RP1=0, select bank0
  6007     02A9  00C7               	movwf	??_Lecture_temperature_ref+1
  6008     02AA  307C               	movlw	124
  6009     02AB  00C6               	movwf	??_Lecture_temperature_ref
  6010     02AC                     u6107:
  6011     02AC  0BC6               	decfsz	??_Lecture_temperature_ref,f
  6012     02AD  2AAC               	goto	u6107
  6013     02AE  0BC7               	decfsz	??_Lecture_temperature_ref+1,f
  6014     02AF  2AAC               	goto	u6107
  6015     02B0  0000               	nop
  6016     02B1                     l3900:
  6017                           
  6018                           ;cont.c: 223:                 k = EEPROM_Read(Address);
  6019     02B1  1283               	bcf	3,5	;RP0=0, select bank0
  6020     02B2  1303               	bcf	3,6	;RP1=0, select bank0
  6021     02B3  086C               	movf	_Address+1,w
  6022     02B4  00A1               	movwf	EEPROM_Read@Address+1
  6023     02B5  086B               	movf	_Address,w
  6024     02B6  00A0               	movwf	EEPROM_Read@Address
  6025     02B7  120A  118A  27EA  120A  118A  	fcall	_EEPROM_Read
  6026     02BC  1283               	bcf	3,5	;RP0=0, select bank0
  6027     02BD  1303               	bcf	3,6	;RP1=0, select bank0
  6028     02BE  00EF               	movwf	_k
  6029     02BF                     l3902:
  6030                           
  6031                           ;cont.c: 224:                 _delay((unsigned long)((1)*(20000000/4000.0)));
  6032     02BF  3007               	movlw	7
  6033     02C0  1283               	bcf	3,5	;RP0=0, select bank0
  6034     02C1  1303               	bcf	3,6	;RP1=0, select bank0
  6035     02C2  00C7               	movwf	??_Lecture_temperature_ref+1
  6036     02C3  307C               	movlw	124
  6037     02C4  00C6               	movwf	??_Lecture_temperature_ref
  6038     02C5                     u6117:
  6039     02C5  0BC6               	decfsz	??_Lecture_temperature_ref,f
  6040     02C6  2AC5               	goto	u6117
  6041     02C7  0BC7               	decfsz	??_Lecture_temperature_ref+1,f
  6042     02C8  2AC5               	goto	u6117
  6043     02C9  0000               	nop
  6044     02CA                     l3904:
  6045                           
  6046                           ;cont.c: 225:                 Lcd_Write_Char(k);
  6047     02CA  1283               	bcf	3,5	;RP0=0, select bank0
  6048     02CB  1303               	bcf	3,6	;RP1=0, select bank0
  6049     02CC  086F               	movf	_k,w
  6050     02CD  120A  158A  2006  120A  118A  	fcall	_Lcd_Write_Char
  6051     02D2                     l3906:
  6052                           
  6053                           ;cont.c: 226:                 _delay((unsigned long)((1)*(20000000/4000.0)));
  6054     02D2  3007               	movlw	7
  6055     02D3  1283               	bcf	3,5	;RP0=0, select bank0
  6056     02D4  1303               	bcf	3,6	;RP1=0, select bank0
  6057     02D5  00C7               	movwf	??_Lecture_temperature_ref+1
  6058     02D6  307C               	movlw	124
  6059     02D7  00C6               	movwf	??_Lecture_temperature_ref
  6060     02D8                     u6127:
  6061     02D8  0BC6               	decfsz	??_Lecture_temperature_ref,f
  6062     02D9  2AD8               	goto	u6127
  6063     02DA  0BC7               	decfsz	??_Lecture_temperature_ref+1,f
  6064     02DB  2AD8               	goto	u6127
  6065     02DC  0000               	nop
  6066     02DD                     l3908:
  6067                           
  6068                           ;cont.c: 227:                 tab[Address]=8;
  6069     02DD  1283               	bcf	3,5	;RP0=0, select bank0
  6070     02DE  1303               	bcf	3,6	;RP1=0, select bank0
  6071     02DF  086B               	movf	_Address,w
  6072     02E0  00C6               	movwf	??_Lecture_temperature_ref
  6073     02E1  0746               	addwf	??_Lecture_temperature_ref,w
  6074     02E2  3E59               	addlw	(low (_tab| 0))& (0+255)
  6075     02E3  0084               	movwf	4
  6076     02E4  3008               	movlw	8
  6077     02E5  1383               	bcf	3,7	;select IRP bank0
  6078     02E6  0080               	movwf	0
  6079     02E7  0A84               	incf	4,f
  6080     02E8  3000               	movlw	0
  6081     02E9  0080               	movwf	0
  6082     02EA                     l3910:
  6083                           
  6084                           ;cont.c: 228:                 _delay((unsigned long)((1)*(20000000/4000.0)));
  6085     02EA  3007               	movlw	7
  6086     02EB  1283               	bcf	3,5	;RP0=0, select bank0
  6087     02EC  1303               	bcf	3,6	;RP1=0, select bank0
  6088     02ED  00C7               	movwf	??_Lecture_temperature_ref+1
  6089     02EE  307C               	movlw	124
  6090     02EF  00C6               	movwf	??_Lecture_temperature_ref
  6091     02F0                     u6137:
  6092     02F0  0BC6               	decfsz	??_Lecture_temperature_ref,f
  6093     02F1  2AF0               	goto	u6137
  6094     02F2  0BC7               	decfsz	??_Lecture_temperature_ref+1,f
  6095     02F3  2AF0               	goto	u6137
  6096     02F4  0000               	nop
  6097     02F5                     l3912:
  6098                           
  6099                           ;cont.c: 229:                 Address++;
  6100     02F5  3001               	movlw	1
  6101     02F6  1283               	bcf	3,5	;RP0=0, select bank0
  6102     02F7  1303               	bcf	3,6	;RP1=0, select bank0
  6103     02F8  07EB               	addwf	_Address,f
  6104     02F9  1803               	skipnc
  6105     02FA  0AEC               	incf	_Address+1,f
  6106     02FB  3000               	movlw	0
  6107     02FC  07EC               	addwf	_Address+1,f
  6108     02FD                     l166:	
  6109                           ;cont.c: 230:                 while(PORTBbits.RB6==1);
  6110                           
  6111     02FD  1B06               	btfsc	6,6	;volatile
  6112     02FE  2B00               	goto	u5651
  6113     02FF  2B01               	goto	u5650
  6114     0300                     u5651:
  6115     0300  2AFD               	goto	l166
  6116     0301                     u5650:
  6117     0301                     l165:	
  6118                           ;cont.c: 231:    }
  6119                           
  6120                           
  6121                           ;cont.c: 232:    if (PORTBbits.RB7==1)
  6122     0301  1F86               	btfss	6,7	;volatile
  6123     0302  2B04               	goto	u5661
  6124     0303  2B05               	goto	u5660
  6125     0304                     u5661:
  6126     0304  2B69               	goto	l169
  6127     0305                     u5660:
  6128     0305                     l3914:
  6129                           
  6130                           ;cont.c: 233:    {;cont.c: 234:                 EEPROM_Write(Address, '0');
  6131     0305  086C               	movf	_Address+1,w
  6132     0306  00A1               	movwf	EEPROM_Write@Address+1
  6133     0307  086B               	movf	_Address,w
  6134     0308  00A0               	movwf	EEPROM_Write@Address
  6135     0309  3030               	movlw	48
  6136     030A  00A2               	movwf	EEPROM_Write@Data
  6137     030B  160A  118A  23AD  120A  118A  	fcall	_EEPROM_Write
  6138     0310                     l3916:
  6139                           
  6140                           ;cont.c: 235:                 _delay((unsigned long)((1)*(20000000/4000.0)));
  6141     0310  3007               	movlw	7
  6142     0311  1283               	bcf	3,5	;RP0=0, select bank0
  6143     0312  1303               	bcf	3,6	;RP1=0, select bank0
  6144     0313  00C7               	movwf	??_Lecture_temperature_ref+1
  6145     0314  307C               	movlw	124
  6146     0315  00C6               	movwf	??_Lecture_temperature_ref
  6147     0316                     u6147:
  6148     0316  0BC6               	decfsz	??_Lecture_temperature_ref,f
  6149     0317  2B16               	goto	u6147
  6150     0318  0BC7               	decfsz	??_Lecture_temperature_ref+1,f
  6151     0319  2B16               	goto	u6147
  6152     031A  0000               	nop
  6153     031B                     l3918:
  6154                           
  6155                           ;cont.c: 236:                 k = EEPROM_Read(Address);
  6156     031B  1283               	bcf	3,5	;RP0=0, select bank0
  6157     031C  1303               	bcf	3,6	;RP1=0, select bank0
  6158     031D  086C               	movf	_Address+1,w
  6159     031E  00A1               	movwf	EEPROM_Read@Address+1
  6160     031F  086B               	movf	_Address,w
  6161     0320  00A0               	movwf	EEPROM_Read@Address
  6162     0321  120A  118A  27EA  120A  118A  	fcall	_EEPROM_Read
  6163     0326  1283               	bcf	3,5	;RP0=0, select bank0
  6164     0327  1303               	bcf	3,6	;RP1=0, select bank0
  6165     0328  00EF               	movwf	_k
  6166     0329                     l3920:
  6167                           
  6168                           ;cont.c: 237:                 _delay((unsigned long)((1)*(20000000/4000.0)));
  6169     0329  3007               	movlw	7
  6170     032A  1283               	bcf	3,5	;RP0=0, select bank0
  6171     032B  1303               	bcf	3,6	;RP1=0, select bank0
  6172     032C  00C7               	movwf	??_Lecture_temperature_ref+1
  6173     032D  307C               	movlw	124
  6174     032E  00C6               	movwf	??_Lecture_temperature_ref
  6175     032F                     u6157:
  6176     032F  0BC6               	decfsz	??_Lecture_temperature_ref,f
  6177     0330  2B2F               	goto	u6157
  6178     0331  0BC7               	decfsz	??_Lecture_temperature_ref+1,f
  6179     0332  2B2F               	goto	u6157
  6180     0333  0000               	nop
  6181     0334                     l3922:
  6182                           
  6183                           ;cont.c: 238:                 Lcd_Write_Char(k);
  6184     0334  1283               	bcf	3,5	;RP0=0, select bank0
  6185     0335  1303               	bcf	3,6	;RP1=0, select bank0
  6186     0336  086F               	movf	_k,w
  6187     0337  120A  158A  2006  120A  118A  	fcall	_Lcd_Write_Char
  6188     033C                     l3924:
  6189                           
  6190                           ;cont.c: 239:                 _delay((unsigned long)((1)*(20000000/4000.0)));
  6191     033C  3007               	movlw	7
  6192     033D  1283               	bcf	3,5	;RP0=0, select bank0
  6193     033E  1303               	bcf	3,6	;RP1=0, select bank0
  6194     033F  00C7               	movwf	??_Lecture_temperature_ref+1
  6195     0340  307C               	movlw	124
  6196     0341  00C6               	movwf	??_Lecture_temperature_ref
  6197     0342                     u6167:
  6198     0342  0BC6               	decfsz	??_Lecture_temperature_ref,f
  6199     0343  2B42               	goto	u6167
  6200     0344  0BC7               	decfsz	??_Lecture_temperature_ref+1,f
  6201     0345  2B42               	goto	u6167
  6202     0346  0000               	nop
  6203     0347                     l3926:
  6204                           
  6205                           ;cont.c: 240:                 tab[Address]=0;
  6206     0347  1283               	bcf	3,5	;RP0=0, select bank0
  6207     0348  1303               	bcf	3,6	;RP1=0, select bank0
  6208     0349  086B               	movf	_Address,w
  6209     034A  00C6               	movwf	??_Lecture_temperature_ref
  6210     034B  0746               	addwf	??_Lecture_temperature_ref,w
  6211     034C  3E59               	addlw	(low (_tab| 0))& (0+255)
  6212     034D  0084               	movwf	4
  6213     034E  1383               	bcf	3,7	;select IRP bank0
  6214     034F  0180               	clrf	0
  6215     0350  0A84               	incf	4,f
  6216     0351  0180               	clrf	0
  6217     0352                     l3928:
  6218                           
  6219                           ;cont.c: 241:                 _delay((unsigned long)((1)*(20000000/4000.0)));
  6220     0352  3007               	movlw	7
  6221     0353  1283               	bcf	3,5	;RP0=0, select bank0
  6222     0354  1303               	bcf	3,6	;RP1=0, select bank0
  6223     0355  00C7               	movwf	??_Lecture_temperature_ref+1
  6224     0356  307C               	movlw	124
  6225     0357  00C6               	movwf	??_Lecture_temperature_ref
  6226     0358                     u6177:
  6227     0358  0BC6               	decfsz	??_Lecture_temperature_ref,f
  6228     0359  2B58               	goto	u6177
  6229     035A  0BC7               	decfsz	??_Lecture_temperature_ref+1,f
  6230     035B  2B58               	goto	u6177
  6231     035C  0000               	nop
  6232     035D                     l3930:
  6233                           
  6234                           ;cont.c: 242:                 Address++;
  6235     035D  3001               	movlw	1
  6236     035E  1283               	bcf	3,5	;RP0=0, select bank0
  6237     035F  1303               	bcf	3,6	;RP1=0, select bank0
  6238     0360  07EB               	addwf	_Address,f
  6239     0361  1803               	skipnc
  6240     0362  0AEC               	incf	_Address+1,f
  6241     0363  3000               	movlw	0
  6242     0364  07EC               	addwf	_Address+1,f
  6243     0365                     l170:	
  6244                           ;cont.c: 243:                 while(PORTBbits.RB7==1);
  6245                           
  6246     0365  1B86               	btfsc	6,7	;volatile
  6247     0366  2B68               	goto	u5671
  6248     0367  2B69               	goto	u5670
  6249     0368                     u5671:
  6250     0368  2B65               	goto	l170
  6251     0369                     u5670:
  6252     0369                     l169:	
  6253                           ;cont.c: 244:    }
  6254                           
  6255                           
  6256                           ;cont.c: 246:   PORTBbits.RB0=0;PORTBbits.RB1=0;PORTBbits.RB2=1;
  6257     0369  1006               	bcf	6,0	;volatile
  6258     036A  1086               	bcf	6,1	;volatile
  6259     036B  1506               	bsf	6,2	;volatile
  6260                           
  6261                           ;cont.c: 247:    if (PORTBbits.RB4==1)
  6262     036C  1E06               	btfss	6,4	;volatile
  6263     036D  2B6F               	goto	u5681
  6264     036E  2B70               	goto	u5680
  6265     036F                     u5681:
  6266     036F  2BD6               	goto	l173
  6267     0370                     u5680:
  6268     0370                     l3932:
  6269                           
  6270                           ;cont.c: 248:    {;cont.c: 249:                 EEPROM_Write(Address, '3');
  6271     0370  086C               	movf	_Address+1,w
  6272     0371  00A1               	movwf	EEPROM_Write@Address+1
  6273     0372  086B               	movf	_Address,w
  6274     0373  00A0               	movwf	EEPROM_Write@Address
  6275     0374  3033               	movlw	51
  6276     0375  00A2               	movwf	EEPROM_Write@Data
  6277     0376  160A  118A  23AD  120A  118A  	fcall	_EEPROM_Write
  6278     037B                     l3934:
  6279                           
  6280                           ;cont.c: 250:                 _delay((unsigned long)((1)*(20000000/4000.0)));
  6281     037B  3007               	movlw	7
  6282     037C  1283               	bcf	3,5	;RP0=0, select bank0
  6283     037D  1303               	bcf	3,6	;RP1=0, select bank0
  6284     037E  00C7               	movwf	??_Lecture_temperature_ref+1
  6285     037F  307C               	movlw	124
  6286     0380  00C6               	movwf	??_Lecture_temperature_ref
  6287     0381                     u6187:
  6288     0381  0BC6               	decfsz	??_Lecture_temperature_ref,f
  6289     0382  2B81               	goto	u6187
  6290     0383  0BC7               	decfsz	??_Lecture_temperature_ref+1,f
  6291     0384  2B81               	goto	u6187
  6292     0385  0000               	nop
  6293     0386                     l3936:
  6294                           
  6295                           ;cont.c: 251:                 k = EEPROM_Read(Address);
  6296     0386  1283               	bcf	3,5	;RP0=0, select bank0
  6297     0387  1303               	bcf	3,6	;RP1=0, select bank0
  6298     0388  086C               	movf	_Address+1,w
  6299     0389  00A1               	movwf	EEPROM_Read@Address+1
  6300     038A  086B               	movf	_Address,w
  6301     038B  00A0               	movwf	EEPROM_Read@Address
  6302     038C  120A  118A  27EA  120A  118A  	fcall	_EEPROM_Read
  6303     0391  1283               	bcf	3,5	;RP0=0, select bank0
  6304     0392  1303               	bcf	3,6	;RP1=0, select bank0
  6305     0393  00EF               	movwf	_k
  6306     0394                     l3938:
  6307                           
  6308                           ;cont.c: 252:                 _delay((unsigned long)((1)*(20000000/4000.0)));
  6309     0394  3007               	movlw	7
  6310     0395  1283               	bcf	3,5	;RP0=0, select bank0
  6311     0396  1303               	bcf	3,6	;RP1=0, select bank0
  6312     0397  00C7               	movwf	??_Lecture_temperature_ref+1
  6313     0398  307C               	movlw	124
  6314     0399  00C6               	movwf	??_Lecture_temperature_ref
  6315     039A                     u6197:
  6316     039A  0BC6               	decfsz	??_Lecture_temperature_ref,f
  6317     039B  2B9A               	goto	u6197
  6318     039C  0BC7               	decfsz	??_Lecture_temperature_ref+1,f
  6319     039D  2B9A               	goto	u6197
  6320     039E  0000               	nop
  6321     039F                     l3940:
  6322                           
  6323                           ;cont.c: 253:                 Lcd_Write_Char(k);
  6324     039F  1283               	bcf	3,5	;RP0=0, select bank0
  6325     03A0  1303               	bcf	3,6	;RP1=0, select bank0
  6326     03A1  086F               	movf	_k,w
  6327     03A2  120A  158A  2006  120A  118A  	fcall	_Lcd_Write_Char
  6328     03A7                     l3942:
  6329                           
  6330                           ;cont.c: 254:                 _delay((unsigned long)((1)*(20000000/4000.0)));
  6331     03A7  3007               	movlw	7
  6332     03A8  1283               	bcf	3,5	;RP0=0, select bank0
  6333     03A9  1303               	bcf	3,6	;RP1=0, select bank0
  6334     03AA  00C7               	movwf	??_Lecture_temperature_ref+1
  6335     03AB  307C               	movlw	124
  6336     03AC  00C6               	movwf	??_Lecture_temperature_ref
  6337     03AD                     u6207:
  6338     03AD  0BC6               	decfsz	??_Lecture_temperature_ref,f
  6339     03AE  2BAD               	goto	u6207
  6340     03AF  0BC7               	decfsz	??_Lecture_temperature_ref+1,f
  6341     03B0  2BAD               	goto	u6207
  6342     03B1  0000               	nop
  6343     03B2                     l3944:
  6344                           
  6345                           ;cont.c: 255:                 tab[Address]=3;
  6346     03B2  1283               	bcf	3,5	;RP0=0, select bank0
  6347     03B3  1303               	bcf	3,6	;RP1=0, select bank0
  6348     03B4  086B               	movf	_Address,w
  6349     03B5  00C6               	movwf	??_Lecture_temperature_ref
  6350     03B6  0746               	addwf	??_Lecture_temperature_ref,w
  6351     03B7  3E59               	addlw	(low (_tab| 0))& (0+255)
  6352     03B8  0084               	movwf	4
  6353     03B9  3003               	movlw	3
  6354     03BA  1383               	bcf	3,7	;select IRP bank0
  6355     03BB  0080               	movwf	0
  6356     03BC  0A84               	incf	4,f
  6357     03BD  3000               	movlw	0
  6358     03BE  0080               	movwf	0
  6359     03BF                     l3946:
  6360                           
  6361                           ;cont.c: 256:                 _delay((unsigned long)((1)*(20000000/4000.0)));
  6362     03BF  3007               	movlw	7
  6363     03C0  1283               	bcf	3,5	;RP0=0, select bank0
  6364     03C1  1303               	bcf	3,6	;RP1=0, select bank0
  6365     03C2  00C7               	movwf	??_Lecture_temperature_ref+1
  6366     03C3  307C               	movlw	124
  6367     03C4  00C6               	movwf	??_Lecture_temperature_ref
  6368     03C5                     u6217:
  6369     03C5  0BC6               	decfsz	??_Lecture_temperature_ref,f
  6370     03C6  2BC5               	goto	u6217
  6371     03C7  0BC7               	decfsz	??_Lecture_temperature_ref+1,f
  6372     03C8  2BC5               	goto	u6217
  6373     03C9  0000               	nop
  6374     03CA                     l3948:
  6375                           
  6376                           ;cont.c: 257:                 Address++;
  6377     03CA  3001               	movlw	1
  6378     03CB  1283               	bcf	3,5	;RP0=0, select bank0
  6379     03CC  1303               	bcf	3,6	;RP1=0, select bank0
  6380     03CD  07EB               	addwf	_Address,f
  6381     03CE  1803               	skipnc
  6382     03CF  0AEC               	incf	_Address+1,f
  6383     03D0  3000               	movlw	0
  6384     03D1  07EC               	addwf	_Address+1,f
  6385     03D2                     l174:	
  6386                           ;cont.c: 258:                 while(PORTBbits.RB4==1);
  6387                           
  6388     03D2  1A06               	btfsc	6,4	;volatile
  6389     03D3  2BD5               	goto	u5691
  6390     03D4  2BD6               	goto	u5690
  6391     03D5                     u5691:
  6392     03D5  2BD2               	goto	l174
  6393     03D6                     u5690:
  6394     03D6                     l173:	
  6395                           ;cont.c: 259:    }
  6396                           
  6397                           
  6398                           ;cont.c: 260:    if (PORTBbits.RB5==1)
  6399     03D6  1E86               	btfss	6,5	;volatile
  6400     03D7  2BD9               	goto	u5701
  6401     03D8  2BDA               	goto	u5700
  6402     03D9                     u5701:
  6403     03D9  2C40               	goto	l177
  6404     03DA                     u5700:
  6405     03DA                     l3950:
  6406                           
  6407                           ;cont.c: 261:    {;cont.c: 262:                 EEPROM_Write(Address, '6');
  6408     03DA  086C               	movf	_Address+1,w
  6409     03DB  00A1               	movwf	EEPROM_Write@Address+1
  6410     03DC  086B               	movf	_Address,w
  6411     03DD  00A0               	movwf	EEPROM_Write@Address
  6412     03DE  3036               	movlw	54
  6413     03DF  00A2               	movwf	EEPROM_Write@Data
  6414     03E0  160A  118A  23AD  120A  118A  	fcall	_EEPROM_Write
  6415     03E5                     l3952:
  6416                           
  6417                           ;cont.c: 263:                 _delay((unsigned long)((1)*(20000000/4000.0)));
  6418     03E5  3007               	movlw	7
  6419     03E6  1283               	bcf	3,5	;RP0=0, select bank0
  6420     03E7  1303               	bcf	3,6	;RP1=0, select bank0
  6421     03E8  00C7               	movwf	??_Lecture_temperature_ref+1
  6422     03E9  307C               	movlw	124
  6423     03EA  00C6               	movwf	??_Lecture_temperature_ref
  6424     03EB                     u6227:
  6425     03EB  0BC6               	decfsz	??_Lecture_temperature_ref,f
  6426     03EC  2BEB               	goto	u6227
  6427     03ED  0BC7               	decfsz	??_Lecture_temperature_ref+1,f
  6428     03EE  2BEB               	goto	u6227
  6429     03EF  0000               	nop
  6430     03F0                     l3954:
  6431                           
  6432                           ;cont.c: 264:                 k = EEPROM_Read(Address);
  6433     03F0  1283               	bcf	3,5	;RP0=0, select bank0
  6434     03F1  1303               	bcf	3,6	;RP1=0, select bank0
  6435     03F2  086C               	movf	_Address+1,w
  6436     03F3  00A1               	movwf	EEPROM_Read@Address+1
  6437     03F4  086B               	movf	_Address,w
  6438     03F5  00A0               	movwf	EEPROM_Read@Address
  6439     03F6  120A  118A  27EA  120A  118A  	fcall	_EEPROM_Read
  6440     03FB  1283               	bcf	3,5	;RP0=0, select bank0
  6441     03FC  1303               	bcf	3,6	;RP1=0, select bank0
  6442     03FD  00EF               	movwf	_k
  6443     03FE                     l3956:
  6444                           
  6445                           ;cont.c: 265:                 _delay((unsigned long)((1)*(20000000/4000.0)));
  6446     03FE  3007               	movlw	7
  6447     03FF  1283               	bcf	3,5	;RP0=0, select bank0
  6448     0400  1303               	bcf	3,6	;RP1=0, select bank0
  6449     0401  00C7               	movwf	??_Lecture_temperature_ref+1
  6450     0402  307C               	movlw	124
  6451     0403  00C6               	movwf	??_Lecture_temperature_ref
  6452     0404                     u6237:
  6453     0404  0BC6               	decfsz	??_Lecture_temperature_ref,f
  6454     0405  2C04               	goto	u6237
  6455     0406  0BC7               	decfsz	??_Lecture_temperature_ref+1,f
  6456     0407  2C04               	goto	u6237
  6457     0408  0000               	nop
  6458     0409                     l3958:
  6459                           
  6460                           ;cont.c: 266:                 Lcd_Write_Char(k);
  6461     0409  1283               	bcf	3,5	;RP0=0, select bank0
  6462     040A  1303               	bcf	3,6	;RP1=0, select bank0
  6463     040B  086F               	movf	_k,w
  6464     040C  120A  158A  2006  120A  118A  	fcall	_Lcd_Write_Char
  6465     0411                     l3960:
  6466                           
  6467                           ;cont.c: 267:                 _delay((unsigned long)((1)*(20000000/4000.0)));
  6468     0411  3007               	movlw	7
  6469     0412  1283               	bcf	3,5	;RP0=0, select bank0
  6470     0413  1303               	bcf	3,6	;RP1=0, select bank0
  6471     0414  00C7               	movwf	??_Lecture_temperature_ref+1
  6472     0415  307C               	movlw	124
  6473     0416  00C6               	movwf	??_Lecture_temperature_ref
  6474     0417                     u6247:
  6475     0417  0BC6               	decfsz	??_Lecture_temperature_ref,f
  6476     0418  2C17               	goto	u6247
  6477     0419  0BC7               	decfsz	??_Lecture_temperature_ref+1,f
  6478     041A  2C17               	goto	u6247
  6479     041B  0000               	nop
  6480     041C                     l3962:
  6481                           
  6482                           ;cont.c: 268:                 tab[Address]=6;
  6483     041C  1283               	bcf	3,5	;RP0=0, select bank0
  6484     041D  1303               	bcf	3,6	;RP1=0, select bank0
  6485     041E  086B               	movf	_Address,w
  6486     041F  00C6               	movwf	??_Lecture_temperature_ref
  6487     0420  0746               	addwf	??_Lecture_temperature_ref,w
  6488     0421  3E59               	addlw	(low (_tab| 0))& (0+255)
  6489     0422  0084               	movwf	4
  6490     0423  3006               	movlw	6
  6491     0424  1383               	bcf	3,7	;select IRP bank0
  6492     0425  0080               	movwf	0
  6493     0426  0A84               	incf	4,f
  6494     0427  3000               	movlw	0
  6495     0428  0080               	movwf	0
  6496     0429                     l3964:
  6497                           
  6498                           ;cont.c: 269:                 _delay((unsigned long)((1)*(20000000/4000.0)));
  6499     0429  3007               	movlw	7
  6500     042A  1283               	bcf	3,5	;RP0=0, select bank0
  6501     042B  1303               	bcf	3,6	;RP1=0, select bank0
  6502     042C  00C7               	movwf	??_Lecture_temperature_ref+1
  6503     042D  307C               	movlw	124
  6504     042E  00C6               	movwf	??_Lecture_temperature_ref
  6505     042F                     u6257:
  6506     042F  0BC6               	decfsz	??_Lecture_temperature_ref,f
  6507     0430  2C2F               	goto	u6257
  6508     0431  0BC7               	decfsz	??_Lecture_temperature_ref+1,f
  6509     0432  2C2F               	goto	u6257
  6510     0433  0000               	nop
  6511     0434                     l3966:
  6512                           
  6513                           ;cont.c: 270:                 Address++;
  6514     0434  3001               	movlw	1
  6515     0435  1283               	bcf	3,5	;RP0=0, select bank0
  6516     0436  1303               	bcf	3,6	;RP1=0, select bank0
  6517     0437  07EB               	addwf	_Address,f
  6518     0438  1803               	skipnc
  6519     0439  0AEC               	incf	_Address+1,f
  6520     043A  3000               	movlw	0
  6521     043B  07EC               	addwf	_Address+1,f
  6522     043C                     l178:	
  6523                           ;cont.c: 271:                 while(PORTBbits.RB5==1);
  6524                           
  6525     043C  1A86               	btfsc	6,5	;volatile
  6526     043D  2C3F               	goto	u5711
  6527     043E  2C40               	goto	u5710
  6528     043F                     u5711:
  6529     043F  2C3C               	goto	l178
  6530     0440                     u5710:
  6531     0440                     l177:	
  6532                           ;cont.c: 272:    }
  6533                           
  6534                           
  6535                           ;cont.c: 273:    if (PORTBbits.RB6==1)
  6536     0440  1F06               	btfss	6,6	;volatile
  6537     0441  2C43               	goto	u5721
  6538     0442  2C44               	goto	u5720
  6539     0443                     u5721:
  6540     0443  2CAA               	goto	l181
  6541     0444                     u5720:
  6542     0444                     l3968:
  6543                           
  6544                           ;cont.c: 274:    {;cont.c: 275:                 EEPROM_Write(Address, '9');
  6545     0444  086C               	movf	_Address+1,w
  6546     0445  00A1               	movwf	EEPROM_Write@Address+1
  6547     0446  086B               	movf	_Address,w
  6548     0447  00A0               	movwf	EEPROM_Write@Address
  6549     0448  3039               	movlw	57
  6550     0449  00A2               	movwf	EEPROM_Write@Data
  6551     044A  160A  118A  23AD  120A  118A  	fcall	_EEPROM_Write
  6552     044F                     l3970:
  6553                           
  6554                           ;cont.c: 276:                 _delay((unsigned long)((1)*(20000000/4000.0)));
  6555     044F  3007               	movlw	7
  6556     0450  1283               	bcf	3,5	;RP0=0, select bank0
  6557     0451  1303               	bcf	3,6	;RP1=0, select bank0
  6558     0452  00C7               	movwf	??_Lecture_temperature_ref+1
  6559     0453  307C               	movlw	124
  6560     0454  00C6               	movwf	??_Lecture_temperature_ref
  6561     0455                     u6267:
  6562     0455  0BC6               	decfsz	??_Lecture_temperature_ref,f
  6563     0456  2C55               	goto	u6267
  6564     0457  0BC7               	decfsz	??_Lecture_temperature_ref+1,f
  6565     0458  2C55               	goto	u6267
  6566     0459  0000               	nop
  6567     045A                     l3972:
  6568                           
  6569                           ;cont.c: 277:                 k = EEPROM_Read(Address);
  6570     045A  1283               	bcf	3,5	;RP0=0, select bank0
  6571     045B  1303               	bcf	3,6	;RP1=0, select bank0
  6572     045C  086C               	movf	_Address+1,w
  6573     045D  00A1               	movwf	EEPROM_Read@Address+1
  6574     045E  086B               	movf	_Address,w
  6575     045F  00A0               	movwf	EEPROM_Read@Address
  6576     0460  120A  118A  27EA  120A  118A  	fcall	_EEPROM_Read
  6577     0465  1283               	bcf	3,5	;RP0=0, select bank0
  6578     0466  1303               	bcf	3,6	;RP1=0, select bank0
  6579     0467  00EF               	movwf	_k
  6580     0468                     l3974:
  6581                           
  6582                           ;cont.c: 278:                 _delay((unsigned long)((1)*(20000000/4000.0)));
  6583     0468  3007               	movlw	7
  6584     0469  1283               	bcf	3,5	;RP0=0, select bank0
  6585     046A  1303               	bcf	3,6	;RP1=0, select bank0
  6586     046B  00C7               	movwf	??_Lecture_temperature_ref+1
  6587     046C  307C               	movlw	124
  6588     046D  00C6               	movwf	??_Lecture_temperature_ref
  6589     046E                     u6277:
  6590     046E  0BC6               	decfsz	??_Lecture_temperature_ref,f
  6591     046F  2C6E               	goto	u6277
  6592     0470  0BC7               	decfsz	??_Lecture_temperature_ref+1,f
  6593     0471  2C6E               	goto	u6277
  6594     0472  0000               	nop
  6595     0473                     l3976:
  6596                           
  6597                           ;cont.c: 279:                 Lcd_Write_Char(k);
  6598     0473  1283               	bcf	3,5	;RP0=0, select bank0
  6599     0474  1303               	bcf	3,6	;RP1=0, select bank0
  6600     0475  086F               	movf	_k,w
  6601     0476  120A  158A  2006  120A  118A  	fcall	_Lcd_Write_Char
  6602     047B                     l3978:
  6603                           
  6604                           ;cont.c: 280:                 _delay((unsigned long)((1)*(20000000/4000.0)));
  6605     047B  3007               	movlw	7
  6606     047C  1283               	bcf	3,5	;RP0=0, select bank0
  6607     047D  1303               	bcf	3,6	;RP1=0, select bank0
  6608     047E  00C7               	movwf	??_Lecture_temperature_ref+1
  6609     047F  307C               	movlw	124
  6610     0480  00C6               	movwf	??_Lecture_temperature_ref
  6611     0481                     u6287:
  6612     0481  0BC6               	decfsz	??_Lecture_temperature_ref,f
  6613     0482  2C81               	goto	u6287
  6614     0483  0BC7               	decfsz	??_Lecture_temperature_ref+1,f
  6615     0484  2C81               	goto	u6287
  6616     0485  0000               	nop
  6617     0486                     l3980:
  6618                           
  6619                           ;cont.c: 281:                 tab[Address]=9;
  6620     0486  1283               	bcf	3,5	;RP0=0, select bank0
  6621     0487  1303               	bcf	3,6	;RP1=0, select bank0
  6622     0488  086B               	movf	_Address,w
  6623     0489  00C6               	movwf	??_Lecture_temperature_ref
  6624     048A  0746               	addwf	??_Lecture_temperature_ref,w
  6625     048B  3E59               	addlw	(low (_tab| 0))& (0+255)
  6626     048C  0084               	movwf	4
  6627     048D  3009               	movlw	9
  6628     048E  1383               	bcf	3,7	;select IRP bank0
  6629     048F  0080               	movwf	0
  6630     0490  0A84               	incf	4,f
  6631     0491  3000               	movlw	0
  6632     0492  0080               	movwf	0
  6633     0493                     l3982:
  6634                           
  6635                           ;cont.c: 282:                 _delay((unsigned long)((1)*(20000000/4000.0)));
  6636     0493  3007               	movlw	7
  6637     0494  1283               	bcf	3,5	;RP0=0, select bank0
  6638     0495  1303               	bcf	3,6	;RP1=0, select bank0
  6639     0496  00C7               	movwf	??_Lecture_temperature_ref+1
  6640     0497  307C               	movlw	124
  6641     0498  00C6               	movwf	??_Lecture_temperature_ref
  6642     0499                     u6297:
  6643     0499  0BC6               	decfsz	??_Lecture_temperature_ref,f
  6644     049A  2C99               	goto	u6297
  6645     049B  0BC7               	decfsz	??_Lecture_temperature_ref+1,f
  6646     049C  2C99               	goto	u6297
  6647     049D  0000               	nop
  6648     049E                     l3984:
  6649                           
  6650                           ;cont.c: 283:                 Address++;
  6651     049E  3001               	movlw	1
  6652     049F  1283               	bcf	3,5	;RP0=0, select bank0
  6653     04A0  1303               	bcf	3,6	;RP1=0, select bank0
  6654     04A1  07EB               	addwf	_Address,f
  6655     04A2  1803               	skipnc
  6656     04A3  0AEC               	incf	_Address+1,f
  6657     04A4  3000               	movlw	0
  6658     04A5  07EC               	addwf	_Address+1,f
  6659     04A6                     l182:	
  6660                           ;cont.c: 284:                 while(PORTBbits.RB6==1);
  6661                           
  6662     04A6  1B06               	btfsc	6,6	;volatile
  6663     04A7  2CA9               	goto	u5731
  6664     04A8  2CAA               	goto	u5730
  6665     04A9                     u5731:
  6666     04A9  2CA6               	goto	l182
  6667     04AA                     u5730:
  6668     04AA                     l181:	
  6669                           ;cont.c: 285:    }
  6670                           
  6671                           
  6672                           ;cont.c: 286:    if (PORTBbits.RB7==1)
  6673     04AA  1F86               	btfss	6,7	;volatile
  6674     04AB  2CAD               	goto	u5741
  6675     04AC  2CAE               	goto	u5740
  6676     04AD                     u5741:
  6677     04AD  2D48               	goto	l4004
  6678     04AE                     u5740:
  6679     04AE  2D16               	goto	l3994
  6680     04AF                     l3988:
  6681                           
  6682                           ;cont.c: 291:             temperature_reff=tab[0];
  6683     04AF  0859               	movf	_tab,w
  6684     04B0  00A6               	movwf	___xxtofl@val
  6685     04B1  085A               	movf	_tab+1,w
  6686     04B2  00A7               	movwf	___xxtofl@val+1
  6687     04B3  3000               	movlw	0
  6688     04B4  1BA7               	btfsc	___xxtofl@val+1,7
  6689     04B5  30FF               	movlw	255
  6690     04B6  00A8               	movwf	___xxtofl@val+2
  6691     04B7  00A9               	movwf	___xxtofl@val+3
  6692     04B8  3001               	movlw	1
  6693     04B9  120A  158A  2012  120A  118A  	fcall	___xxtofl
  6694     04BE  1283               	bcf	3,5	;RP0=0, select bank0
  6695     04BF  1303               	bcf	3,6	;RP1=0, select bank0
  6696     04C0  0829               	movf	?___xxtofl+3,w
  6697     04C1  1683               	bsf	3,5	;RP0=1, select bank1
  6698     04C2  1303               	bcf	3,6	;RP1=0, select bank1
  6699     04C3  00A7               	movwf	(_temperature_reff+3)^(0+128)
  6700     04C4  1283               	bcf	3,5	;RP0=0, select bank0
  6701     04C5  1303               	bcf	3,6	;RP1=0, select bank0
  6702     04C6  0828               	movf	?___xxtofl+2,w
  6703     04C7  1683               	bsf	3,5	;RP0=1, select bank1
  6704     04C8  1303               	bcf	3,6	;RP1=0, select bank1
  6705     04C9  00A6               	movwf	(_temperature_reff+2)^(0+128)
  6706     04CA  1283               	bcf	3,5	;RP0=0, select bank0
  6707     04CB  1303               	bcf	3,6	;RP1=0, select bank0
  6708     04CC  0827               	movf	?___xxtofl+1,w
  6709     04CD  1683               	bsf	3,5	;RP0=1, select bank1
  6710     04CE  1303               	bcf	3,6	;RP1=0, select bank1
  6711     04CF  00A5               	movwf	(_temperature_reff+1)^(0+128)
  6712     04D0  1283               	bcf	3,5	;RP0=0, select bank0
  6713     04D1  1303               	bcf	3,6	;RP1=0, select bank0
  6714     04D2  0826               	movf	?___xxtofl,w
  6715     04D3  1683               	bsf	3,5	;RP0=1, select bank1
  6716     04D4  1303               	bcf	3,6	;RP1=0, select bank1
  6717     04D5  00A4               	movwf	_temperature_reff^(0+128)
  6718                           
  6719                           ;cont.c: 292:             break;
  6720     04D6  2D23               	goto	l3996
  6721     04D7                     l3990:
  6722                           
  6723                           ;cont.c: 295:             temperature_reff=(float)(tab[0]*10+tab[1]);
  6724     04D7  300A               	movlw	10
  6725     04D8  00A2               	movwf	___wmul@multiplicand
  6726     04D9  3000               	movlw	0
  6727     04DA  00A3               	movwf	___wmul@multiplicand+1
  6728     04DB  085A               	movf	_tab+1,w
  6729     04DC  00A1               	movwf	___wmul@multiplier+1
  6730     04DD  0859               	movf	_tab,w
  6731     04DE  00A0               	movwf	___wmul@multiplier
  6732     04DF  160A  118A  23EF  120A  118A  	fcall	___wmul
  6733     04E4  1283               	bcf	3,5	;RP0=0, select bank0
  6734     04E5  1303               	bcf	3,6	;RP1=0, select bank0
  6735     04E6  085B               	movf	_tab+2,w
  6736     04E7  0720               	addwf	?___wmul,w
  6737     04E8  00C6               	movwf	??_Lecture_temperature_ref
  6738     04E9  085C               	movf	_tab+3,w
  6739     04EA  1803               	skipnc
  6740     04EB  0A5C               	incf	_tab+3,w
  6741     04EC  0721               	addwf	?___wmul+1,w
  6742     04ED  00C7               	movwf	??_Lecture_temperature_ref+1
  6743     04EE  0846               	movf	??_Lecture_temperature_ref,w
  6744     04EF  00A6               	movwf	___xxtofl@val
  6745     04F0  0847               	movf	??_Lecture_temperature_ref+1,w
  6746     04F1  00A7               	movwf	___xxtofl@val+1
  6747     04F2  3000               	movlw	0
  6748     04F3  1BA7               	btfsc	___xxtofl@val+1,7
  6749     04F4  30FF               	movlw	255
  6750     04F5  00A8               	movwf	___xxtofl@val+2
  6751     04F6  00A9               	movwf	___xxtofl@val+3
  6752     04F7  3001               	movlw	1
  6753     04F8  120A  158A  2012  120A  118A  	fcall	___xxtofl
  6754     04FD  1283               	bcf	3,5	;RP0=0, select bank0
  6755     04FE  1303               	bcf	3,6	;RP1=0, select bank0
  6756     04FF  0829               	movf	?___xxtofl+3,w
  6757     0500  1683               	bsf	3,5	;RP0=1, select bank1
  6758     0501  1303               	bcf	3,6	;RP1=0, select bank1
  6759     0502  00A7               	movwf	(_temperature_reff+3)^(0+128)
  6760     0503  1283               	bcf	3,5	;RP0=0, select bank0
  6761     0504  1303               	bcf	3,6	;RP1=0, select bank0
  6762     0505  0828               	movf	?___xxtofl+2,w
  6763     0506  1683               	bsf	3,5	;RP0=1, select bank1
  6764     0507  1303               	bcf	3,6	;RP1=0, select bank1
  6765     0508  00A6               	movwf	(_temperature_reff+2)^(0+128)
  6766     0509  1283               	bcf	3,5	;RP0=0, select bank0
  6767     050A  1303               	bcf	3,6	;RP1=0, select bank0
  6768     050B  0827               	movf	?___xxtofl+1,w
  6769     050C  1683               	bsf	3,5	;RP0=1, select bank1
  6770     050D  1303               	bcf	3,6	;RP1=0, select bank1
  6771     050E  00A5               	movwf	(_temperature_reff+1)^(0+128)
  6772     050F  1283               	bcf	3,5	;RP0=0, select bank0
  6773     0510  1303               	bcf	3,6	;RP1=0, select bank0
  6774     0511  0826               	movf	?___xxtofl,w
  6775     0512  1683               	bsf	3,5	;RP0=1, select bank1
  6776     0513  1303               	bcf	3,6	;RP1=0, select bank1
  6777     0514  00A4               	movwf	_temperature_reff^(0+128)
  6778                           
  6779                           ;cont.c: 296:             break;}
  6780     0515  2D23               	goto	l3996
  6781     0516                     l3994:
  6782                           
  6783                           ; Switch on 2 bytes has been partitioned into a top level switch of size 1, and 1 sub-sw
      +                          itches
  6784                           ; Switch size 1, requested type "simple"
  6785                           ; Number of cases is 1, Range of values is 0 to 0
  6786                           ; switch strategies available:
  6787                           ; Name         Instructions Cycles
  6788                           ; simple_byte            4     3 (average)
  6789                           ; direct_byte           11     8 (fixed)
  6790                           ; jumptable            260     6 (fixed)
  6791                           ;	Chosen strategy is simple_byte
  6792     0516  086C               	movf	_Address+1,w
  6793     0517  3A00               	xorlw	0	; case 0
  6794     0518  1903               	skipnz
  6795     0519  2D1B               	goto	l4142
  6796     051A  2D23               	goto	l3996
  6797     051B                     l4142:
  6798                           
  6799                           ; Switch size 1, requested type "simple"
  6800                           ; Number of cases is 2, Range of values is 1 to 2
  6801                           ; switch strategies available:
  6802                           ; Name         Instructions Cycles
  6803                           ; simple_byte            7     4 (average)
  6804                           ; direct_byte           17    11 (fixed)
  6805                           ; jumptable            263     9 (fixed)
  6806                           ;	Chosen strategy is simple_byte
  6807     051B  086B               	movf	_Address,w
  6808     051C  3A01               	xorlw	1	; case 1
  6809     051D  1903               	skipnz
  6810     051E  2CAF               	goto	l3988
  6811     051F  3A03               	xorlw	3	; case 2
  6812     0520  1903               	skipnz
  6813     0521  2CD7               	goto	l3990
  6814     0522  2D23               	goto	l3996
  6815     0523                     l3996:
  6816                           
  6817                           ;cont.c: 301:                 Lcd_Write_String(" C",2);
  6818     0523  3002               	movlw	2
  6819     0524  1283               	bcf	3,5	;RP0=0, select bank0
  6820     0525  00A2               	movwf	Lcd_Write_String@num
  6821     0526  3033               	movlw	(low ((STR_1-__stringbase)| (0+32768)))& (0+255)
  6822     0527  160A  118A  238E  120A  118A  	fcall	_Lcd_Write_String
  6823     052C                     l3998:
  6824                           
  6825                           ;cont.c: 302:                 Lcd_Cmd(0xC0);
  6826     052C  30C0               	movlw	192
  6827     052D  160A  118A  236B  120A  118A  	fcall	_Lcd_Cmd
  6828     0532                     l4000:
  6829                           
  6830                           ;cont.c: 303:                 _delay((unsigned long)((1)*(20000000/4000.0)));
  6831     0532  3007               	movlw	7
  6832     0533  1283               	bcf	3,5	;RP0=0, select bank0
  6833     0534  1303               	bcf	3,6	;RP1=0, select bank0
  6834     0535  00C7               	movwf	??_Lecture_temperature_ref+1
  6835     0536  307C               	movlw	124
  6836     0537  00C6               	movwf	??_Lecture_temperature_ref
  6837     0538                     u6307:
  6838     0538  0BC6               	decfsz	??_Lecture_temperature_ref,f
  6839     0539  2D38               	goto	u6307
  6840     053A  0BC7               	decfsz	??_Lecture_temperature_ref+1,f
  6841     053B  2D38               	goto	u6307
  6842     053C  0000               	nop
  6843     053D                     l4002:
  6844                           
  6845                           ;cont.c: 304:                 Lcd_Write_String("ACTUAL TEMP:",12);
  6846     053D  300C               	movlw	12
  6847     053E  1283               	bcf	3,5	;RP0=0, select bank0
  6848     053F  1303               	bcf	3,6	;RP1=0, select bank0
  6849     0540  00A2               	movwf	Lcd_Write_String@num
  6850     0541  300F               	movlw	(low ((STR_2-__stringbase)| (0+32768)))& (0+255)
  6851     0542  160A  118A  238E  120A  118A  	fcall	_Lcd_Write_String
  6852                           
  6853                           ;cont.c: 305:                 goto jump;
  6854     0547  2DBC               	goto	l4010
  6855     0548                     l4004:
  6856                           
  6857                           ;cont.c: 134: while(Address<3)
  6858     0548  1283               	bcf	3,5	;RP0=0, select bank0
  6859     0549  1303               	bcf	3,6	;RP1=0, select bank0
  6860     054A  086C               	movf	_Address+1,w
  6861     054B  3A80               	xorlw	128
  6862     054C  00FF               	movwf	btemp+1
  6863     054D  3080               	movlw	128
  6864     054E  027F               	subwf	btemp+1,w
  6865     054F  1D03               	skipz
  6866     0550  2D53               	goto	u5755
  6867     0551  3003               	movlw	3
  6868     0552  026B               	subwf	_Address,w
  6869     0553                     u5755:
  6870     0553  1C03               	skipc
  6871     0554  2D56               	goto	u5751
  6872     0555  2D57               	goto	u5750
  6873     0556                     u5751:
  6874     0556  282B               	goto	l140
  6875     0557                     u5750:
  6876     0557                     l4006:
  6877                           
  6878                           ;cont.c: 309: temperature_reff=(float)(tab[0]*100+tab[1]*10+tab[2]);
  6879     0557  3064               	movlw	100
  6880     0558  1283               	bcf	3,5	;RP0=0, select bank0
  6881     0559  1303               	bcf	3,6	;RP1=0, select bank0
  6882     055A  00A2               	movwf	___wmul@multiplicand
  6883     055B  3000               	movlw	0
  6884     055C  00A3               	movwf	___wmul@multiplicand+1
  6885     055D  085A               	movf	_tab+1,w
  6886     055E  00A1               	movwf	___wmul@multiplier+1
  6887     055F  0859               	movf	_tab,w
  6888     0560  00A0               	movwf	___wmul@multiplier
  6889     0561  160A  118A  23EF  120A  118A  	fcall	___wmul
  6890     0566  1283               	bcf	3,5	;RP0=0, select bank0
  6891     0567  1303               	bcf	3,6	;RP1=0, select bank0
  6892     0568  0820               	movf	?___wmul,w
  6893     0569  00C6               	movwf	??_Lecture_temperature_ref
  6894     056A  0821               	movf	?___wmul+1,w
  6895     056B  00C7               	movwf	??_Lecture_temperature_ref+1
  6896     056C  300A               	movlw	10
  6897     056D  00A2               	movwf	___wmul@multiplicand
  6898     056E  3000               	movlw	0
  6899     056F  00A3               	movwf	___wmul@multiplicand+1
  6900     0570  085C               	movf	_tab+3,w
  6901     0571  00A1               	movwf	___wmul@multiplier+1
  6902     0572  085B               	movf	_tab+2,w
  6903     0573  00A0               	movwf	___wmul@multiplier
  6904     0574  160A  118A  23EF  120A  118A  	fcall	___wmul
  6905     0579  1283               	bcf	3,5	;RP0=0, select bank0
  6906     057A  1303               	bcf	3,6	;RP1=0, select bank0
  6907     057B  0820               	movf	?___wmul,w
  6908     057C  0746               	addwf	??_Lecture_temperature_ref,w
  6909     057D  00C8               	movwf	??_Lecture_temperature_ref+2
  6910     057E  0821               	movf	?___wmul+1,w
  6911     057F  1803               	skipnc
  6912     0580  0A21               	incf	?___wmul+1,w
  6913     0581  0747               	addwf	??_Lecture_temperature_ref+1,w
  6914     0582  00C9               	movwf	??_Lecture_temperature_ref+3
  6915     0583  085D               	movf	_tab+4,w
  6916     0584  0748               	addwf	??_Lecture_temperature_ref+2,w
  6917     0585  00CA               	movwf	??_Lecture_temperature_ref+4
  6918     0586  085E               	movf	_tab+5,w
  6919     0587  1803               	skipnc
  6920     0588  0A5E               	incf	_tab+5,w
  6921     0589  0749               	addwf	??_Lecture_temperature_ref+3,w
  6922     058A  00CB               	movwf	??_Lecture_temperature_ref+5
  6923     058B  084A               	movf	??_Lecture_temperature_ref+4,w
  6924     058C  00A6               	movwf	___xxtofl@val
  6925     058D  084B               	movf	??_Lecture_temperature_ref+5,w
  6926     058E  00A7               	movwf	___xxtofl@val+1
  6927     058F  3000               	movlw	0
  6928     0590  1BA7               	btfsc	___xxtofl@val+1,7
  6929     0591  30FF               	movlw	255
  6930     0592  00A8               	movwf	___xxtofl@val+2
  6931     0593  00A9               	movwf	___xxtofl@val+3
  6932     0594  3001               	movlw	1
  6933     0595  120A  158A  2012  120A  118A  	fcall	___xxtofl
  6934     059A  1283               	bcf	3,5	;RP0=0, select bank0
  6935     059B  1303               	bcf	3,6	;RP1=0, select bank0
  6936     059C  0829               	movf	?___xxtofl+3,w
  6937     059D  1683               	bsf	3,5	;RP0=1, select bank1
  6938     059E  1303               	bcf	3,6	;RP1=0, select bank1
  6939     059F  00A7               	movwf	(_temperature_reff+3)^(0+128)
  6940     05A0  1283               	bcf	3,5	;RP0=0, select bank0
  6941     05A1  1303               	bcf	3,6	;RP1=0, select bank0
  6942     05A2  0828               	movf	?___xxtofl+2,w
  6943     05A3  1683               	bsf	3,5	;RP0=1, select bank1
  6944     05A4  1303               	bcf	3,6	;RP1=0, select bank1
  6945     05A5  00A6               	movwf	(_temperature_reff+2)^(0+128)
  6946     05A6  1283               	bcf	3,5	;RP0=0, select bank0
  6947     05A7  1303               	bcf	3,6	;RP1=0, select bank0
  6948     05A8  0827               	movf	?___xxtofl+1,w
  6949     05A9  1683               	bsf	3,5	;RP0=1, select bank1
  6950     05AA  1303               	bcf	3,6	;RP1=0, select bank1
  6951     05AB  00A5               	movwf	(_temperature_reff+1)^(0+128)
  6952     05AC  1283               	bcf	3,5	;RP0=0, select bank0
  6953     05AD  1303               	bcf	3,6	;RP1=0, select bank0
  6954     05AE  0826               	movf	?___xxtofl,w
  6955     05AF  1683               	bsf	3,5	;RP0=1, select bank1
  6956     05B0  1303               	bcf	3,6	;RP1=0, select bank1
  6957     05B1  00A4               	movwf	_temperature_reff^(0+128)
  6958     05B2                     l4008:
  6959                           
  6960                           ;cont.c: 310: Lcd_Write_String(" C",2);
  6961     05B2  3002               	movlw	2
  6962     05B3  1283               	bcf	3,5	;RP0=0, select bank0
  6963     05B4  1303               	bcf	3,6	;RP1=0, select bank0
  6964     05B5  00A2               	movwf	Lcd_Write_String@num
  6965     05B6  3033               	movlw	(low ((STR_1-__stringbase)| (0+32768)))& (0+255)
  6966     05B7  160A  118A  238E  120A  118A  	fcall	_Lcd_Write_String
  6967     05BC                     l4010:
  6968                           
  6969                           ;cont.c: 312: return temperature_reff;
  6970     05BC  1683               	bsf	3,5	;RP0=1, select bank1
  6971     05BD  1303               	bcf	3,6	;RP1=0, select bank1
  6972     05BE  0827               	movf	(_temperature_reff+3)^(0+128),w
  6973     05BF  1283               	bcf	3,5	;RP0=0, select bank0
  6974     05C0  1303               	bcf	3,6	;RP1=0, select bank0
  6975     05C1  00BD               	movwf	___fltol@f1+3
  6976     05C2  1683               	bsf	3,5	;RP0=1, select bank1
  6977     05C3  1303               	bcf	3,6	;RP1=0, select bank1
  6978     05C4  0826               	movf	(_temperature_reff+2)^(0+128),w
  6979     05C5  1283               	bcf	3,5	;RP0=0, select bank0
  6980     05C6  1303               	bcf	3,6	;RP1=0, select bank0
  6981     05C7  00BC               	movwf	___fltol@f1+2
  6982     05C8  1683               	bsf	3,5	;RP0=1, select bank1
  6983     05C9  1303               	bcf	3,6	;RP1=0, select bank1
  6984     05CA  0825               	movf	(_temperature_reff+1)^(0+128),w
  6985     05CB  1283               	bcf	3,5	;RP0=0, select bank0
  6986     05CC  1303               	bcf	3,6	;RP1=0, select bank0
  6987     05CD  00BB               	movwf	___fltol@f1+1
  6988     05CE  1683               	bsf	3,5	;RP0=1, select bank1
  6989     05CF  1303               	bcf	3,6	;RP1=0, select bank1
  6990     05D0  0824               	movf	_temperature_reff^(0+128),w
  6991     05D1  1283               	bcf	3,5	;RP0=0, select bank0
  6992     05D2  1303               	bcf	3,6	;RP1=0, select bank0
  6993     05D3  00BA               	movwf	___fltol@f1
  6994     05D4  160A  118A  24F9  120A  118A  	fcall	___fltol
  6995     05D9  1283               	bcf	3,5	;RP0=0, select bank0
  6996     05DA  1303               	bcf	3,6	;RP1=0, select bank0
  6997     05DB  083B               	movf	?___fltol+1,w
  6998     05DC  00C5               	movwf	?_Lecture_temperature_ref+1
  6999     05DD  083A               	movf	?___fltol,w
  7000     05DE  00C4               	movwf	?_Lecture_temperature_ref
  7001     05DF                     l192:
  7002     05DF  0008               	return
  7003     05E0                     __end_of_Lecture_temperature_ref:
  7004                           
  7005                           	psect	text15
  7006     0812                     __ptext15:	
  7007 ;; *************** function ___xxtofl *****************
  7008 ;; Defined at:
  7009 ;;		line 10 in file "C:\Program Files\Microchip\xc8\v2.41\pic\sources\c90\common\xxtofl.c"
  7010 ;; Parameters:    Size  Location     Type
  7011 ;;  sign            1    wreg     unsigned char 
  7012 ;;  val             4    6[BANK0 ] long 
  7013 ;; Auto vars:     Size  Location     Type
  7014 ;;  sign            1   14[BANK0 ] unsigned char 
  7015 ;;  arg             4   16[BANK0 ] unsigned long 
  7016 ;;  exp             1   15[BANK0 ] unsigned char 
  7017 ;; Return value:  Size  Location     Type
  7018 ;;                  4    6[BANK0 ] unsigned char 
  7019 ;; Registers used:
  7020 ;;		wreg, status,2, status,0, btemp+1
  7021 ;; Tracked objects:
  7022 ;;		On entry : 0/0
  7023 ;;		On exit  : 0/0
  7024 ;;		Unchanged: 0/0
  7025 ;; Data sizes:     COMMON   BANK0   BANK1   BANK3   BANK2
  7026 ;;      Params:         0       4       0       0       0
  7027 ;;      Locals:         0       6       0       0       0
  7028 ;;      Temps:          0       4       0       0       0
  7029 ;;      Totals:         0      14       0       0       0
  7030 ;;Total ram usage:       14 bytes
  7031 ;; Hardware stack levels used: 1
  7032 ;; Hardware stack levels required when called: 1
  7033 ;; This function calls:
  7034 ;;		Nothing
  7035 ;; This function is called by:
  7036 ;;		_Lecture_temperature_ref
  7037 ;;		_lecture_temperature_mes
  7038 ;;		_main
  7039 ;; This function uses a non-reentrant model
  7040 ;;
  7041                           
  7042     0812                     ___xxtofl:	
  7043                           ;psect for function ___xxtofl
  7044                           
  7045                           
  7046                           ;incstack = 0
  7047                           ; Regs used in ___xxtofl: [wreg+status,2+status,0+btemp+1]
  7048                           ;___xxtofl@sign stored from wreg
  7049     0812  1283               	bcf	3,5	;RP0=0, select bank0
  7050     0813  1303               	bcf	3,6	;RP1=0, select bank0
  7051     0814  00AE               	movwf	___xxtofl@sign
  7052     0815                     l3716:
  7053     0815  082E               	movf	___xxtofl@sign,w
  7054     0816  1903               	btfsc	3,2
  7055     0817  2819               	goto	u5371
  7056     0818  281A               	goto	u5370
  7057     0819                     u5371:
  7058     0819  282E               	goto	l3722
  7059     081A                     u5370:
  7060     081A                     l3718:
  7061     081A  1FA9               	btfss	___xxtofl@val+3,7
  7062     081B  281D               	goto	u5381
  7063     081C  281E               	goto	u5380
  7064     081D                     u5381:
  7065     081D  282E               	goto	l3722
  7066     081E                     u5380:
  7067     081E                     l3720:
  7068     081E  0926               	comf	___xxtofl@val,w
  7069     081F  00B0               	movwf	___xxtofl@arg
  7070     0820  0927               	comf	___xxtofl@val+1,w
  7071     0821  00B1               	movwf	___xxtofl@arg+1
  7072     0822  0928               	comf	___xxtofl@val+2,w
  7073     0823  00B2               	movwf	___xxtofl@arg+2
  7074     0824  0929               	comf	___xxtofl@val+3,w
  7075     0825  00B3               	movwf	___xxtofl@arg+3
  7076     0826  0AB0               	incf	___xxtofl@arg,f
  7077     0827  1903               	skipnz
  7078     0828  0AB1               	incf	___xxtofl@arg+1,f
  7079     0829  1903               	skipnz
  7080     082A  0AB2               	incf	___xxtofl@arg+2,f
  7081     082B  1903               	skipnz
  7082     082C  0AB3               	incf	___xxtofl@arg+3,f
  7083     082D  2836               	goto	l739
  7084     082E                     l3722:
  7085     082E  0829               	movf	___xxtofl@val+3,w
  7086     082F  00B3               	movwf	___xxtofl@arg+3
  7087     0830  0828               	movf	___xxtofl@val+2,w
  7088     0831  00B2               	movwf	___xxtofl@arg+2
  7089     0832  0827               	movf	___xxtofl@val+1,w
  7090     0833  00B1               	movwf	___xxtofl@arg+1
  7091     0834  0826               	movf	___xxtofl@val,w
  7092     0835  00B0               	movwf	___xxtofl@arg
  7093     0836                     l739:
  7094     0836  0829               	movf	___xxtofl@val+3,w
  7095     0837  0428               	iorwf	___xxtofl@val+2,w
  7096     0838  0427               	iorwf	___xxtofl@val+1,w
  7097     0839  0426               	iorwf	___xxtofl@val,w
  7098     083A  1D03               	skipz
  7099     083B  283D               	goto	u5391
  7100     083C  283E               	goto	u5390
  7101     083D                     u5391:
  7102     083D  2847               	goto	l3728
  7103     083E                     u5390:
  7104     083E                     l3724:
  7105     083E  3000               	movlw	0
  7106     083F  00A9               	movwf	?___xxtofl+3
  7107     0840  3000               	movlw	0
  7108     0841  00A8               	movwf	?___xxtofl+2
  7109     0842  3000               	movlw	0
  7110     0843  00A7               	movwf	?___xxtofl+1
  7111     0844  3000               	movlw	0
  7112     0845  00A6               	movwf	?___xxtofl
  7113     0846  28CB               	goto	l741
  7114     0847                     l3728:
  7115     0847  3096               	movlw	150
  7116     0848  00AF               	movwf	___xxtofl@exp
  7117     0849  2857               	goto	l3734
  7118     084A                     l3730:
  7119     084A  3001               	movlw	1
  7120     084B  00FF               	movwf	btemp+1
  7121     084C  087F               	movf	btemp+1,w
  7122     084D  07AF               	addwf	___xxtofl@exp,f
  7123     084E                     l3732:
  7124     084E  3001               	movlw	1
  7125     084F                     u5405:
  7126     084F  1003               	clrc
  7127     0850  0CB3               	rrf	___xxtofl@arg+3,f
  7128     0851  0CB2               	rrf	___xxtofl@arg+2,f
  7129     0852  0CB1               	rrf	___xxtofl@arg+1,f
  7130     0853  0CB0               	rrf	___xxtofl@arg,f
  7131     0854  3EFF               	addlw	-1
  7132     0855  1D03               	skipz
  7133     0856  284F               	goto	u5405
  7134     0857                     l3734:
  7135     0857  30FE               	movlw	254
  7136     0858  0533               	andwf	___xxtofl@arg+3,w
  7137     0859  1D03               	btfss	3,2
  7138     085A  285C               	goto	u5411
  7139     085B  285D               	goto	u5410
  7140     085C                     u5411:
  7141     085C  284A               	goto	l3730
  7142     085D                     u5410:
  7143     085D  2879               	goto	l3742
  7144     085E                     l3736:
  7145     085E  3001               	movlw	1
  7146     085F  00FF               	movwf	btemp+1
  7147     0860  087F               	movf	btemp+1,w
  7148     0861  07AF               	addwf	___xxtofl@exp,f
  7149     0862                     l3738:
  7150     0862  3001               	movlw	1
  7151     0863  07B0               	addwf	___xxtofl@arg,f
  7152     0864  3000               	movlw	0
  7153     0865  1803               	skipnc
  7154     0866  3001               	movlw	1
  7155     0867  07B1               	addwf	___xxtofl@arg+1,f
  7156     0868  3000               	movlw	0
  7157     0869  1803               	skipnc
  7158     086A  3001               	movlw	1
  7159     086B  07B2               	addwf	___xxtofl@arg+2,f
  7160     086C  3000               	movlw	0
  7161     086D  1803               	skipnc
  7162     086E  3001               	movlw	1
  7163     086F  07B3               	addwf	___xxtofl@arg+3,f
  7164     0870                     l3740:
  7165     0870  3001               	movlw	1
  7166     0871                     u5425:
  7167     0871  1003               	clrc
  7168     0872  0CB3               	rrf	___xxtofl@arg+3,f
  7169     0873  0CB2               	rrf	___xxtofl@arg+2,f
  7170     0874  0CB1               	rrf	___xxtofl@arg+1,f
  7171     0875  0CB0               	rrf	___xxtofl@arg,f
  7172     0876  3EFF               	addlw	-1
  7173     0877  1D03               	skipz
  7174     0878  2871               	goto	u5425
  7175     0879                     l3742:
  7176     0879  30FF               	movlw	255
  7177     087A  0533               	andwf	___xxtofl@arg+3,w
  7178     087B  1D03               	btfss	3,2
  7179     087C  287E               	goto	u5431
  7180     087D  287F               	goto	u5430
  7181     087E                     u5431:
  7182     087E  285E               	goto	l3736
  7183     087F                     u5430:
  7184     087F  288B               	goto	l3746
  7185     0880                     l3744:
  7186     0880  3001               	movlw	1
  7187     0881  02AF               	subwf	___xxtofl@exp,f
  7188     0882  3001               	movlw	1
  7189     0883  00AA               	movwf	??___xxtofl
  7190     0884                     u5445:
  7191     0884  1003               	clrc
  7192     0885  0DB0               	rlf	___xxtofl@arg,f
  7193     0886  0DB1               	rlf	___xxtofl@arg+1,f
  7194     0887  0DB2               	rlf	___xxtofl@arg+2,f
  7195     0888  0DB3               	rlf	___xxtofl@arg+3,f
  7196     0889  0BAA               	decfsz	??___xxtofl,f
  7197     088A  2884               	goto	u5445
  7198     088B                     l3746:
  7199     088B  1BB2               	btfsc	___xxtofl@arg+2,7
  7200     088C  288E               	goto	u5451
  7201     088D  288F               	goto	u5450
  7202     088E                     u5451:
  7203     088E  2895               	goto	l752
  7204     088F                     u5450:
  7205     088F                     l3748:
  7206     088F  3002               	movlw	2
  7207     0890  022F               	subwf	___xxtofl@exp,w
  7208     0891  1803               	skipnc
  7209     0892  2894               	goto	u5461
  7210     0893  2895               	goto	u5460
  7211     0894                     u5461:
  7212     0894  2880               	goto	l3744
  7213     0895                     u5460:
  7214     0895                     l752:
  7215     0895  182F               	btfsc	___xxtofl@exp,0
  7216     0896  2898               	goto	u5471
  7217     0897  2899               	goto	u5470
  7218     0898                     u5471:
  7219     0898  28A1               	goto	l753
  7220     0899                     u5470:
  7221     0899                     l3750:
  7222     0899  30FF               	movlw	255
  7223     089A  05B0               	andwf	___xxtofl@arg,f
  7224     089B  30FF               	movlw	255
  7225     089C  05B1               	andwf	___xxtofl@arg+1,f
  7226     089D  307F               	movlw	127
  7227     089E  05B2               	andwf	___xxtofl@arg+2,f
  7228     089F  30FF               	movlw	255
  7229     08A0  05B3               	andwf	___xxtofl@arg+3,f
  7230     08A1                     l753:
  7231     08A1  1003               	clrc
  7232     08A2  0CAF               	rrf	___xxtofl@exp,f
  7233     08A3                     l3752:
  7234     08A3  082F               	movf	___xxtofl@exp,w
  7235     08A4  00AA               	movwf	??___xxtofl
  7236     08A5  01AB               	clrf	??___xxtofl+1
  7237     08A6  01AC               	clrf	??___xxtofl+2
  7238     08A7  01AD               	clrf	??___xxtofl+3
  7239     08A8  3018               	movlw	24
  7240     08A9                     u5485:
  7241     08A9  1003               	clrc
  7242     08AA  0DAA               	rlf	??___xxtofl,f
  7243     08AB  0DAB               	rlf	??___xxtofl+1,f
  7244     08AC  0DAC               	rlf	??___xxtofl+2,f
  7245     08AD  0DAD               	rlf	??___xxtofl+3,f
  7246     08AE                     u5480:
  7247     08AE  3EFF               	addlw	-1
  7248     08AF  1D03               	skipz
  7249     08B0  28A9               	goto	u5485
  7250     08B1  082A               	movf	??___xxtofl,w
  7251     08B2  04B0               	iorwf	___xxtofl@arg,f
  7252     08B3  082B               	movf	??___xxtofl+1,w
  7253     08B4  04B1               	iorwf	___xxtofl@arg+1,f
  7254     08B5  082C               	movf	??___xxtofl+2,w
  7255     08B6  04B2               	iorwf	___xxtofl@arg+2,f
  7256     08B7  082D               	movf	??___xxtofl+3,w
  7257     08B8  04B3               	iorwf	___xxtofl@arg+3,f
  7258     08B9                     l3754:
  7259     08B9  082E               	movf	___xxtofl@sign,w
  7260     08BA  1903               	btfsc	3,2
  7261     08BB  28BD               	goto	u5491
  7262     08BC  28BE               	goto	u5490
  7263     08BD                     u5491:
  7264     08BD  28C3               	goto	l3760
  7265     08BE                     u5490:
  7266     08BE                     l3756:
  7267     08BE  1FA9               	btfss	___xxtofl@val+3,7
  7268     08BF  28C1               	goto	u5501
  7269     08C0  28C2               	goto	u5500
  7270     08C1                     u5501:
  7271     08C1  28C3               	goto	l3760
  7272     08C2                     u5500:
  7273     08C2                     l3758:
  7274     08C2  17B3               	bsf	___xxtofl@arg+3,7
  7275     08C3                     l3760:
  7276     08C3  0833               	movf	___xxtofl@arg+3,w
  7277     08C4  00A9               	movwf	?___xxtofl+3
  7278     08C5  0832               	movf	___xxtofl@arg+2,w
  7279     08C6  00A8               	movwf	?___xxtofl+2
  7280     08C7  0831               	movf	___xxtofl@arg+1,w
  7281     08C8  00A7               	movwf	?___xxtofl+1
  7282     08C9  0830               	movf	___xxtofl@arg,w
  7283     08CA  00A6               	movwf	?___xxtofl
  7284     08CB                     l741:
  7285     08CB  0008               	return
  7286     08CC                     __end_of___xxtofl:
  7287                           
  7288                           	psect	text16
  7289     13EF                     __ptext16:	
  7290 ;; *************** function ___wmul *****************
  7291 ;; Defined at:
  7292 ;;		line 15 in file "C:\Program Files\Microchip\xc8\v2.41\pic\sources\c90\common\Umul16.c"
  7293 ;; Parameters:    Size  Location     Type
  7294 ;;  multiplier      2    0[BANK0 ] unsigned int 
  7295 ;;  multiplicand    2    2[BANK0 ] unsigned int 
  7296 ;; Auto vars:     Size  Location     Type
  7297 ;;  product         2    4[BANK0 ] unsigned int 
  7298 ;; Return value:  Size  Location     Type
  7299 ;;                  2    0[BANK0 ] unsigned int 
  7300 ;; Registers used:
  7301 ;;		wreg, status,2, status,0
  7302 ;; Tracked objects:
  7303 ;;		On entry : 0/0
  7304 ;;		On exit  : 0/0
  7305 ;;		Unchanged: 0/0
  7306 ;; Data sizes:     COMMON   BANK0   BANK1   BANK3   BANK2
  7307 ;;      Params:         0       4       0       0       0
  7308 ;;      Locals:         0       2       0       0       0
  7309 ;;      Temps:          0       0       0       0       0
  7310 ;;      Totals:         0       6       0       0       0
  7311 ;;Total ram usage:        6 bytes
  7312 ;; Hardware stack levels used: 1
  7313 ;; Hardware stack levels required when called: 1
  7314 ;; This function calls:
  7315 ;;		Nothing
  7316 ;; This function is called by:
  7317 ;;		_Lecture_temperature_ref
  7318 ;; This function uses a non-reentrant model
  7319 ;;
  7320                           
  7321     13EF                     ___wmul:	
  7322                           ;psect for function ___wmul
  7323                           
  7324     13EF                     l3118:	
  7325                           ;incstack = 0
  7326                           ; Regs used in ___wmul: [wreg+status,2+status,0]
  7327                           
  7328     13EF  1283               	bcf	3,5	;RP0=0, select bank0
  7329     13F0  1303               	bcf	3,6	;RP1=0, select bank0
  7330     13F1  01A4               	clrf	___wmul@product
  7331     13F2  01A5               	clrf	___wmul@product+1
  7332     13F3                     l3120:
  7333     13F3  1C20               	btfss	___wmul@multiplier,0
  7334     13F4  2BF6               	goto	u3951
  7335     13F5  2BF7               	goto	u3950
  7336     13F6                     u3951:
  7337     13F6  2BFD               	goto	l306
  7338     13F7                     u3950:
  7339     13F7                     l3122:
  7340     13F7  0822               	movf	___wmul@multiplicand,w
  7341     13F8  07A4               	addwf	___wmul@product,f
  7342     13F9  1803               	skipnc
  7343     13FA  0AA5               	incf	___wmul@product+1,f
  7344     13FB  0823               	movf	___wmul@multiplicand+1,w
  7345     13FC  07A5               	addwf	___wmul@product+1,f
  7346     13FD                     l306:
  7347     13FD  3001               	movlw	1
  7348     13FE                     u3965:
  7349     13FE  1003               	clrc
  7350     13FF  0DA2               	rlf	___wmul@multiplicand,f
  7351     1400  0DA3               	rlf	___wmul@multiplicand+1,f
  7352     1401  3EFF               	addlw	-1
  7353     1402  1D03               	skipz
  7354     1403  2BFE               	goto	u3965
  7355     1404                     l3124:
  7356     1404  3001               	movlw	1
  7357     1405                     u3975:
  7358     1405  1003               	clrc
  7359     1406  0CA1               	rrf	___wmul@multiplier+1,f
  7360     1407  0CA0               	rrf	___wmul@multiplier,f
  7361     1408  3EFF               	addlw	-1
  7362     1409  1D03               	skipz
  7363     140A  2C05               	goto	u3975
  7364     140B                     l3126:
  7365     140B  0820               	movf	___wmul@multiplier,w
  7366     140C  0421               	iorwf	___wmul@multiplier+1,w
  7367     140D  1D03               	btfss	3,2
  7368     140E  2C10               	goto	u3981
  7369     140F  2C11               	goto	u3980
  7370     1410                     u3981:
  7371     1410  2BF3               	goto	l3120
  7372     1411                     u3980:
  7373     1411                     l3128:
  7374     1411  0825               	movf	___wmul@product+1,w
  7375     1412  00A1               	movwf	?___wmul+1
  7376     1413  0824               	movf	___wmul@product,w
  7377     1414  00A0               	movwf	?___wmul
  7378     1415                     l308:
  7379     1415  0008               	return
  7380     1416                     __end_of___wmul:
  7381                           
  7382                           	psect	text17
  7383     14F9                     __ptext17:	
  7384 ;; *************** function ___fltol *****************
  7385 ;; Defined at:
  7386 ;;		line 43 in file "C:\Program Files\Microchip\xc8\v2.41\pic\sources\c90\common\fltol.c"
  7387 ;; Parameters:    Size  Location     Type
  7388 ;;  f1              4   26[BANK0 ] unsigned int 
  7389 ;; Auto vars:     Size  Location     Type
  7390 ;;  exp1            1   35[BANK0 ] unsigned char 
  7391 ;;  sign1           1   34[BANK0 ] unsigned char 
  7392 ;; Return value:  Size  Location     Type
  7393 ;;                  4   26[BANK0 ] long 
  7394 ;; Registers used:
  7395 ;;		wreg, status,2, status,0, btemp+1
  7396 ;; Tracked objects:
  7397 ;;		On entry : 0/0
  7398 ;;		On exit  : 0/0
  7399 ;;		Unchanged: 0/0
  7400 ;; Data sizes:     COMMON   BANK0   BANK1   BANK3   BANK2
  7401 ;;      Params:         0       4       0       0       0
  7402 ;;      Locals:         0       2       0       0       0
  7403 ;;      Temps:          0       4       0       0       0
  7404 ;;      Totals:         0      10       0       0       0
  7405 ;;Total ram usage:       10 bytes
  7406 ;; Hardware stack levels used: 1
  7407 ;; Hardware stack levels required when called: 1
  7408 ;; This function calls:
  7409 ;;		Nothing
  7410 ;; This function is called by:
  7411 ;;		_Lecture_temperature_ref
  7412 ;;		_lecture_temperature_mes
  7413 ;;		_main
  7414 ;; This function uses a non-reentrant model
  7415 ;;
  7416                           
  7417     14F9                     ___fltol:	
  7418                           ;psect for function ___fltol
  7419                           
  7420     14F9                     l3190:	
  7421                           ;incstack = 0
  7422                           ; Regs used in ___fltol: [wreg+status,2+status,0+btemp+1]
  7423                           
  7424     14F9  1003               	clrc
  7425     14FA  1283               	bcf	3,5	;RP0=0, select bank0
  7426     14FB  1303               	bcf	3,6	;RP1=0, select bank0
  7427     14FC  0D3C               	rlf	___fltol@f1+2,w
  7428     14FD  0D3D               	rlf	___fltol@f1+3,w
  7429     14FE  00C3               	movwf	___fltol@exp1
  7430     14FF  0843               	movf	___fltol@exp1,w
  7431     1500  1D03               	btfss	3,2
  7432     1501  2D03               	goto	u4151
  7433     1502  2D04               	goto	u4150
  7434     1503                     u4151:
  7435     1503  2D0D               	goto	l3196
  7436     1504                     u4150:
  7437     1504                     l3192:
  7438     1504  3000               	movlw	0
  7439     1505  00BD               	movwf	?___fltol+3
  7440     1506  3000               	movlw	0
  7441     1507  00BC               	movwf	?___fltol+2
  7442     1508  3000               	movlw	0
  7443     1509  00BB               	movwf	?___fltol+1
  7444     150A  3000               	movlw	0
  7445     150B  00BA               	movwf	?___fltol
  7446     150C  2D70               	goto	l492
  7447     150D                     l3196:
  7448     150D  083A               	movf	___fltol@f1,w
  7449     150E  00BE               	movwf	??___fltol
  7450     150F  083B               	movf	___fltol@f1+1,w
  7451     1510  00BF               	movwf	??___fltol+1
  7452     1511  083C               	movf	___fltol@f1+2,w
  7453     1512  00C0               	movwf	??___fltol+2
  7454     1513  083D               	movf	___fltol@f1+3,w
  7455     1514  00C1               	movwf	??___fltol+3
  7456     1515  301F               	movlw	31
  7457     1516                     u4165:
  7458     1516  1003               	clrc
  7459     1517  0CC1               	rrf	??___fltol+3,f
  7460     1518  0CC0               	rrf	??___fltol+2,f
  7461     1519  0CBF               	rrf	??___fltol+1,f
  7462     151A  0CBE               	rrf	??___fltol,f
  7463     151B                     u4160:
  7464     151B  3EFF               	addlw	-1
  7465     151C  1D03               	skipz
  7466     151D  2D16               	goto	u4165
  7467     151E  083E               	movf	??___fltol,w
  7468     151F  00C2               	movwf	___fltol@sign1
  7469     1520                     l3198:
  7470     1520  17BC               	bsf	___fltol@f1+2,7
  7471     1521                     l3200:
  7472     1521  30FF               	movlw	255
  7473     1522  05BA               	andwf	___fltol@f1,f
  7474     1523  30FF               	movlw	255
  7475     1524  05BB               	andwf	___fltol@f1+1,f
  7476     1525  30FF               	movlw	255
  7477     1526  05BC               	andwf	___fltol@f1+2,f
  7478     1527  3000               	movlw	0
  7479     1528  05BD               	andwf	___fltol@f1+3,f
  7480     1529                     l3202:
  7481     1529  3096               	movlw	150
  7482     152A  02C3               	subwf	___fltol@exp1,f
  7483     152B                     l3204:
  7484     152B  1FC3               	btfss	___fltol@exp1,7
  7485     152C  2D2E               	goto	u4171
  7486     152D  2D2F               	goto	u4170
  7487     152E                     u4171:
  7488     152E  2D49               	goto	l3216
  7489     152F                     u4170:
  7490     152F                     l3206:
  7491     152F  0843               	movf	___fltol@exp1,w
  7492     1530  3A80               	xorlw	128
  7493     1531  3E97               	addlw	151
  7494     1532  1803               	skipnc
  7495     1533  2D35               	goto	u4181
  7496     1534  2D36               	goto	u4180
  7497     1535                     u4181:
  7498     1535  2D37               	goto	l3212
  7499     1536                     u4180:
  7500     1536  2D04               	goto	l3192
  7501     1537                     l3212:
  7502     1537  3001               	movlw	1
  7503     1538                     u4195:
  7504     1538  1003               	clrc
  7505     1539  0CBD               	rrf	___fltol@f1+3,f
  7506     153A  0CBC               	rrf	___fltol@f1+2,f
  7507     153B  0CBB               	rrf	___fltol@f1+1,f
  7508     153C  0CBA               	rrf	___fltol@f1,f
  7509     153D  3EFF               	addlw	-1
  7510     153E  1D03               	skipz
  7511     153F  2D38               	goto	u4195
  7512     1540                     l3214:
  7513     1540  3001               	movlw	1
  7514     1541  00FF               	movwf	btemp+1
  7515     1542  087F               	movf	btemp+1,w
  7516     1543  07C3               	addwf	___fltol@exp1,f
  7517     1544  1D03               	btfss	3,2
  7518     1545  2D47               	goto	u4201
  7519     1546  2D48               	goto	u4200
  7520     1547                     u4201:
  7521     1547  2D37               	goto	l3212
  7522     1548                     u4200:
  7523     1548  2D60               	goto	l3224
  7524     1549                     l3216:
  7525     1549  3020               	movlw	32
  7526     154A  0243               	subwf	___fltol@exp1,w
  7527     154B  1C03               	skipc
  7528     154C  2D4E               	goto	u4211
  7529     154D  2D4F               	goto	u4210
  7530     154E                     u4211:
  7531     154E  2D5B               	goto	l499
  7532     154F                     u4210:
  7533     154F  2D04               	goto	l3192
  7534     1550                     l3222:
  7535     1550  3001               	movlw	1
  7536     1551  00BE               	movwf	??___fltol
  7537     1552                     u4225:
  7538     1552  1003               	clrc
  7539     1553  0DBA               	rlf	___fltol@f1,f
  7540     1554  0DBB               	rlf	___fltol@f1+1,f
  7541     1555  0DBC               	rlf	___fltol@f1+2,f
  7542     1556  0DBD               	rlf	___fltol@f1+3,f
  7543     1557  0BBE               	decfsz	??___fltol,f
  7544     1558  2D52               	goto	u4225
  7545     1559  3001               	movlw	1
  7546     155A  02C3               	subwf	___fltol@exp1,f
  7547     155B                     l499:
  7548     155B  0843               	movf	___fltol@exp1,w
  7549     155C  1D03               	btfss	3,2
  7550     155D  2D5F               	goto	u4231
  7551     155E  2D60               	goto	u4230
  7552     155F                     u4231:
  7553     155F  2D50               	goto	l3222
  7554     1560                     u4230:
  7555     1560                     l3224:
  7556     1560  0842               	movf	___fltol@sign1,w
  7557     1561  1903               	btfsc	3,2
  7558     1562  2D64               	goto	u4241
  7559     1563  2D65               	goto	u4240
  7560     1564                     u4241:
  7561     1564  2D70               	goto	l502
  7562     1565                     u4240:
  7563     1565                     l3226:
  7564     1565  09BA               	comf	___fltol@f1,f
  7565     1566  09BB               	comf	___fltol@f1+1,f
  7566     1567  09BC               	comf	___fltol@f1+2,f
  7567     1568  09BD               	comf	___fltol@f1+3,f
  7568     1569  0ABA               	incf	___fltol@f1,f
  7569     156A  1903               	skipnz
  7570     156B  0ABB               	incf	___fltol@f1+1,f
  7571     156C  1903               	skipnz
  7572     156D  0ABC               	incf	___fltol@f1+2,f
  7573     156E  1903               	skipnz
  7574     156F  0ABD               	incf	___fltol@f1+3,f
  7575     1570                     l502:
  7576     1570                     l492:
  7577     1570  0008               	return
  7578     1571                     __end_of___fltol:
  7579                           
  7580                           	psect	text18
  7581     138E                     __ptext18:	
  7582 ;; *************** function _Lcd_Write_String *****************
  7583 ;; Defined at:
  7584 ;;		line 124 in file "cont.c"
  7585 ;; Parameters:    Size  Location     Type
  7586 ;;  str             1    wreg     PTR const unsigned char 
  7587 ;;		 -> STR_7(10), STR_6(9), STR_5(4), STR_4(14), 
  7588 ;;		 -> STR_3(3), STR_2(13), STR_1(3), 
  7589 ;;  num             1    2[BANK0 ] unsigned char 
  7590 ;; Auto vars:     Size  Location     Type
  7591 ;;  str             1    4[BANK0 ] PTR const unsigned char 
  7592 ;;		 -> STR_7(10), STR_6(9), STR_5(4), STR_4(14), 
  7593 ;;		 -> STR_3(3), STR_2(13), STR_1(3), 
  7594 ;;  i               1    3[BANK0 ] unsigned char 
  7595 ;; Return value:  Size  Location     Type
  7596 ;;                  1    wreg      void 
  7597 ;; Registers used:
  7598 ;;		wreg, fsr0l, fsr0h, status,2, status,0, btemp+1, pclath, cstack
  7599 ;; Tracked objects:
  7600 ;;		On entry : 0/0
  7601 ;;		On exit  : 0/0
  7602 ;;		Unchanged: 0/0
  7603 ;; Data sizes:     COMMON   BANK0   BANK1   BANK3   BANK2
  7604 ;;      Params:         0       1       0       0       0
  7605 ;;      Locals:         0       2       0       0       0
  7606 ;;      Temps:          0       0       0       0       0
  7607 ;;      Totals:         0       3       0       0       0
  7608 ;;Total ram usage:        3 bytes
  7609 ;; Hardware stack levels used: 1
  7610 ;; Hardware stack levels required when called: 3
  7611 ;; This function calls:
  7612 ;;		_Lcd_Write_Char
  7613 ;; This function is called by:
  7614 ;;		_Lecture_temperature_ref
  7615 ;;		_lecture_temperature_mes
  7616 ;;		_main
  7617 ;; This function uses a non-reentrant model
  7618 ;;
  7619                           
  7620     138E                     _Lcd_Write_String:	
  7621                           ;psect for function _Lcd_Write_String
  7622                           
  7623                           
  7624                           ;incstack = 0
  7625                           ; Regs used in _Lcd_Write_String: [wreg-fsr0h+status,2+status,0+btemp+1+pclath+cstack]
  7626                           ;Lcd_Write_String@str stored from wreg
  7627     138E  1283               	bcf	3,5	;RP0=0, select bank0
  7628     138F  1303               	bcf	3,6	;RP1=0, select bank0
  7629     1390  00A4               	movwf	Lcd_Write_String@str
  7630     1391                     l3110:
  7631                           
  7632                           ;cont.c: 124: void Lcd_Write_String(const char *str, unsigned char num);cont.c: 125: {;c
      +                          ont.c: 126:     unsigned char i;;cont.c: 127:     for(i=0;i<num;i++)
  7633     1391  01A3               	clrf	Lcd_Write_String@i
  7634     1392  2BA6               	goto	l3116
  7635     1393                     l3112:
  7636                           
  7637                           ;cont.c: 128:     {;cont.c: 129:         Lcd_Write_Char(str[i]);
  7638     1393  0823               	movf	Lcd_Write_String@i,w
  7639     1394  0724               	addwf	Lcd_Write_String@str,w
  7640     1395  0084               	movwf	4
  7641     1396  120A  118A  27AF  160A  118A  	fcall	stringdir
  7642     139B  120A  158A  2006  160A  118A  	fcall	_Lcd_Write_Char
  7643     13A0                     l3114:
  7644                           
  7645                           ;cont.c: 130:     }
  7646     13A0  3001               	movlw	1
  7647     13A1  00FF               	movwf	btemp+1
  7648     13A2  087F               	movf	btemp+1,w
  7649     13A3  1283               	bcf	3,5	;RP0=0, select bank0
  7650     13A4  1303               	bcf	3,6	;RP1=0, select bank0
  7651     13A5  07A3               	addwf	Lcd_Write_String@i,f
  7652     13A6                     l3116:
  7653     13A6  0822               	movf	Lcd_Write_String@num,w
  7654     13A7  0223               	subwf	Lcd_Write_String@i,w
  7655     13A8  1C03               	skipc
  7656     13A9  2BAB               	goto	u3941
  7657     13AA  2BAC               	goto	u3940
  7658     13AB                     u3941:
  7659     13AB  2B93               	goto	l3112
  7660     13AC                     u3940:
  7661     13AC                     l136:
  7662     13AC  0008               	return
  7663     13AD                     __end_of_Lcd_Write_String:
  7664                           
  7665                           	psect	text19
  7666     0806                     __ptext19:	
  7667 ;; *************** function _Lcd_Write_Char *****************
  7668 ;; Defined at:
  7669 ;;		line 118 in file "cont.c"
  7670 ;; Parameters:    Size  Location     Type
  7671 ;;  Data            1    wreg     unsigned char 
  7672 ;; Auto vars:     Size  Location     Type
  7673 ;;  Data            1    1[BANK0 ] unsigned char 
  7674 ;; Return value:  Size  Location     Type
  7675 ;;                  1    wreg      void 
  7676 ;; Registers used:
  7677 ;;		wreg, status,2, status,0, pclath, cstack
  7678 ;; Tracked objects:
  7679 ;;		On entry : 0/0
  7680 ;;		On exit  : 0/0
  7681 ;;		Unchanged: 0/0
  7682 ;; Data sizes:     COMMON   BANK0   BANK1   BANK3   BANK2
  7683 ;;      Params:         0       0       0       0       0
  7684 ;;      Locals:         0       1       0       0       0
  7685 ;;      Temps:          0       0       0       0       0
  7686 ;;      Totals:         0       1       0       0       0
  7687 ;;Total ram usage:        1 bytes
  7688 ;; Hardware stack levels used: 1
  7689 ;; Hardware stack levels required when called: 2
  7690 ;; This function calls:
  7691 ;;		_Lcd_Port
  7692 ;; This function is called by:
  7693 ;;		_Lcd_Write_String
  7694 ;;		_Lecture_temperature_ref
  7695 ;;		_lecture_temperature_mes
  7696 ;; This function uses a non-reentrant model
  7697 ;;
  7698                           
  7699     0806                     _Lcd_Write_Char:	
  7700                           ;psect for function _Lcd_Write_Char
  7701                           
  7702                           
  7703                           ;incstack = 0
  7704                           ; Regs used in _Lcd_Write_Char: [wreg+status,2+status,0+pclath+cstack]
  7705                           ;Lcd_Write_Char@Data stored from wreg
  7706     0806  1283               	bcf	3,5	;RP0=0, select bank0
  7707     0807  1303               	bcf	3,6	;RP1=0, select bank0
  7708     0808  00A1               	movwf	Lcd_Write_Char@Data
  7709     0809                     l3050:
  7710                           
  7711                           ;cont.c: 118: void Lcd_Write_Char(char Data);cont.c: 119: {;cont.c: 120:     PORTCbits.R
      +                          C6 = 1;
  7712     0809  1707               	bsf	7,6	;volatile
  7713     080A                     l3052:
  7714                           
  7715                           ;cont.c: 121:     PORTD = Data;
  7716     080A  0821               	movf	Lcd_Write_Char@Data,w
  7717     080B  0088               	movwf	8	;volatile
  7718     080C                     l3054:
  7719                           
  7720                           ;cont.c: 122:     Lcd_Port();
  7721     080C  160A  118A  2377  120A  158A  	fcall	_Lcd_Port
  7722     0811                     l130:
  7723     0811  0008               	return
  7724     0812                     __end_of_Lcd_Write_Char:
  7725                           
  7726                           	psect	text20
  7727     13AD                     __ptext20:	
  7728 ;; *************** function _EEPROM_Write *****************
  7729 ;; Defined at:
  7730 ;;		line 64 in file "cont.c"
  7731 ;; Parameters:    Size  Location     Type
  7732 ;;  Address         2    0[BANK0 ] int 
  7733 ;;  Data            1    2[BANK0 ] unsigned char 
  7734 ;; Auto vars:     Size  Location     Type
  7735 ;;		None
  7736 ;; Return value:  Size  Location     Type
  7737 ;;                  1    wreg      void 
  7738 ;; Registers used:
  7739 ;;		wreg
  7740 ;; Tracked objects:
  7741 ;;		On entry : 0/0
  7742 ;;		On exit  : 0/0
  7743 ;;		Unchanged: 0/0
  7744 ;; Data sizes:     COMMON   BANK0   BANK1   BANK3   BANK2
  7745 ;;      Params:         0       3       0       0       0
  7746 ;;      Locals:         0       0       0       0       0
  7747 ;;      Temps:          0       0       0       0       0
  7748 ;;      Totals:         0       3       0       0       0
  7749 ;;Total ram usage:        3 bytes
  7750 ;; Hardware stack levels used: 1
  7751 ;; Hardware stack levels required when called: 1
  7752 ;; This function calls:
  7753 ;;		Nothing
  7754 ;; This function is called by:
  7755 ;;		_Lecture_temperature_ref
  7756 ;; This function uses a non-reentrant model
  7757 ;;
  7758                           
  7759     13AD                     _EEPROM_Write:	
  7760                           ;psect for function _EEPROM_Write
  7761                           
  7762     13AD                     l3078:	
  7763                           ;incstack = 0
  7764                           ; Regs used in _EEPROM_Write: [wreg]
  7765                           
  7766     13AD                     l112:	
  7767                           ;cont.c: 64: void EEPROM_Write(int Address,char Data);cont.c: 65: {;cont.c: 66:   while(
      +                          EECON1bits.WR);
  7768                           
  7769     13AD  1683               	bsf	3,5	;RP0=1, select bank3
  7770     13AE  1703               	bsf	3,6	;RP1=1, select bank3
  7771     13AF  188C               	btfsc	12,1	;volsfr
  7772     13B0  2BB2               	goto	u3931
  7773     13B1  2BB3               	goto	u3930
  7774     13B2                     u3931:
  7775     13B2  2BAD               	goto	l112
  7776     13B3                     u3930:
  7777     13B3                     l3080:
  7778                           
  7779                           ;cont.c: 67:   EEADR = Address;
  7780     13B3  1283               	bcf	3,5	;RP0=0, select bank0
  7781     13B4  1303               	bcf	3,6	;RP1=0, select bank0
  7782     13B5  0820               	movf	EEPROM_Write@Address,w
  7783     13B6  1283               	bcf	3,5	;RP0=0, select bank2
  7784     13B7  1703               	bsf	3,6	;RP1=1, select bank2
  7785     13B8  008D               	movwf	13	;volatile
  7786                           
  7787                           ;cont.c: 68:   EEDATA = Data;
  7788     13B9  1283               	bcf	3,5	;RP0=0, select bank0
  7789     13BA  1303               	bcf	3,6	;RP1=0, select bank0
  7790     13BB  0822               	movf	EEPROM_Write@Data,w
  7791     13BC  1283               	bcf	3,5	;RP0=0, select bank2
  7792     13BD  1703               	bsf	3,6	;RP1=1, select bank2
  7793     13BE  008C               	movwf	12	;volatile
  7794     13BF                     l3082:
  7795                           
  7796                           ;cont.c: 69:   EECON1bits.EEPGD = 0;
  7797     13BF  1683               	bsf	3,5	;RP0=1, select bank3
  7798     13C0  1703               	bsf	3,6	;RP1=1, select bank3
  7799     13C1  138C               	bcf	12,7	;volsfr
  7800     13C2                     l3084:
  7801                           
  7802                           ;cont.c: 70:   EECON1bits.WREN = 1;
  7803     13C2  150C               	bsf	12,2	;volsfr
  7804     13C3                     l3086:
  7805                           
  7806                           ;cont.c: 71:   INTCONbits.GIE = 0;
  7807     13C3  138B               	bcf	11,7	;volatile
  7808                           
  7809                           ;cont.c: 72:   EECON2 = 0x55;
  7810     13C4  3055               	movlw	85
  7811     13C5  008D               	movwf	13	;volsfr
  7812                           
  7813                           ;cont.c: 73:   EECON2 = 0xAA;
  7814     13C6  30AA               	movlw	170
  7815     13C7  008D               	movwf	13	;volsfr
  7816     13C8                     l3088:
  7817                           
  7818                           ;cont.c: 74:   EECON1bits.WR = 1;
  7819     13C8  148C               	bsf	12,1	;volsfr
  7820     13C9                     l3090:
  7821                           
  7822                           ;cont.c: 75:   INTCONbits.GIE = 1;
  7823     13C9  178B               	bsf	11,7	;volatile
  7824     13CA                     l3092:
  7825                           
  7826                           ;cont.c: 76:   EECON1bits.WREN = 0;
  7827     13CA  110C               	bcf	12,2	;volsfr
  7828     13CB                     l3094:
  7829                           
  7830                           ;cont.c: 77:   EECON1bits.WR = 0;
  7831     13CB  108C               	bcf	12,1	;volsfr
  7832     13CC                     l115:
  7833     13CC  0008               	return
  7834     13CD                     __end_of_EEPROM_Write:
  7835                           
  7836                           	psect	text21
  7837     07EA                     __ptext21:	
  7838 ;; *************** function _EEPROM_Read *****************
  7839 ;; Defined at:
  7840 ;;		line 79 in file "cont.c"
  7841 ;; Parameters:    Size  Location     Type
  7842 ;;  Address         2    0[BANK0 ] int 
  7843 ;; Auto vars:     Size  Location     Type
  7844 ;;  Data            1    2[BANK0 ] unsigned char 
  7845 ;; Return value:  Size  Location     Type
  7846 ;;                  1    wreg      unsigned char 
  7847 ;; Registers used:
  7848 ;;		wreg
  7849 ;; Tracked objects:
  7850 ;;		On entry : 0/0
  7851 ;;		On exit  : 0/0
  7852 ;;		Unchanged: 0/0
  7853 ;; Data sizes:     COMMON   BANK0   BANK1   BANK3   BANK2
  7854 ;;      Params:         0       2       0       0       0
  7855 ;;      Locals:         0       1       0       0       0
  7856 ;;      Temps:          0       0       0       0       0
  7857 ;;      Totals:         0       3       0       0       0
  7858 ;;Total ram usage:        3 bytes
  7859 ;; Hardware stack levels used: 1
  7860 ;; Hardware stack levels required when called: 1
  7861 ;; This function calls:
  7862 ;;		Nothing
  7863 ;; This function is called by:
  7864 ;;		_Lecture_temperature_ref
  7865 ;; This function uses a non-reentrant model
  7866 ;;
  7867                           
  7868     07EA                     _EEPROM_Read:	
  7869                           ;psect for function _EEPROM_Read
  7870                           
  7871     07EA                     l3096:	
  7872                           ;incstack = 0
  7873                           ; Regs used in _EEPROM_Read: [wreg]
  7874                           
  7875                           
  7876                           ;cont.c: 79: char EEPROM_Read(int Address);cont.c: 80: {;cont.c: 81:   char Data;;cont.c
      +                          : 82:   EEADR = Address;
  7877     07EA  1283               	bcf	3,5	;RP0=0, select bank0
  7878     07EB  1303               	bcf	3,6	;RP1=0, select bank0
  7879     07EC  0820               	movf	EEPROM_Read@Address,w
  7880     07ED  1283               	bcf	3,5	;RP0=0, select bank2
  7881     07EE  1703               	bsf	3,6	;RP1=1, select bank2
  7882     07EF  008D               	movwf	13	;volatile
  7883     07F0                     l3098:
  7884                           
  7885                           ;cont.c: 83:   EECON1bits.EEPGD = 0;
  7886     07F0  1683               	bsf	3,5	;RP0=1, select bank3
  7887     07F1  1703               	bsf	3,6	;RP1=1, select bank3
  7888     07F2  138C               	bcf	12,7	;volsfr
  7889     07F3                     l3100:
  7890                           
  7891                           ;cont.c: 84:   EECON1bits.RD = 1;
  7892     07F3  140C               	bsf	12,0	;volsfr
  7893                           
  7894                           ;cont.c: 85:   Data = EEDATA;
  7895     07F4  1283               	bcf	3,5	;RP0=0, select bank2
  7896     07F5  1703               	bsf	3,6	;RP1=1, select bank2
  7897     07F6  080C               	movf	12,w	;volatile
  7898     07F7  1283               	bcf	3,5	;RP0=0, select bank0
  7899     07F8  1303               	bcf	3,6	;RP1=0, select bank0
  7900     07F9  00A2               	movwf	EEPROM_Read@Data
  7901                           
  7902                           ;cont.c: 86:   return Data;
  7903     07FA  0822               	movf	EEPROM_Read@Data,w
  7904     07FB                     l118:
  7905     07FB  0008               	return
  7906     07FC                     __end_of_EEPROM_Read:
  7907                           
  7908                           	psect	text22
  7909     13CD                     __ptext22:	
  7910 ;; *************** function _Init_LCD *****************
  7911 ;; Defined at:
  7912 ;;		line 102 in file "cont.c"
  7913 ;; Parameters:    Size  Location     Type
  7914 ;;		None
  7915 ;; Auto vars:     Size  Location     Type
  7916 ;;		None
  7917 ;; Return value:  Size  Location     Type
  7918 ;;                  1    wreg      void 
  7919 ;; Registers used:
  7920 ;;		wreg, status,2, status,0, pclath, cstack
  7921 ;; Tracked objects:
  7922 ;;		On entry : 0/0
  7923 ;;		On exit  : 0/0
  7924 ;;		Unchanged: 0/0
  7925 ;; Data sizes:     COMMON   BANK0   BANK1   BANK3   BANK2
  7926 ;;      Params:         0       0       0       0       0
  7927 ;;      Locals:         0       0       0       0       0
  7928 ;;      Temps:          0       2       0       0       0
  7929 ;;      Totals:         0       2       0       0       0
  7930 ;;Total ram usage:        2 bytes
  7931 ;; Hardware stack levels used: 1
  7932 ;; Hardware stack levels required when called: 3
  7933 ;; This function calls:
  7934 ;;		_Lcd_Cmd
  7935 ;; This function is called by:
  7936 ;;		_main
  7937 ;; This function uses a non-reentrant model
  7938 ;;
  7939                           
  7940     13CD                     _Init_LCD:	
  7941                           ;psect for function _Init_LCD
  7942                           
  7943     13CD                     l3776:	
  7944                           ;incstack = 0
  7945                           ; Regs used in _Init_LCD: [wreg+status,2+status,0+pclath+cstack]
  7946                           
  7947                           
  7948                           ;cont.c: 105:     PORTCbits.RC7 = 0;
  7949     13CD  1283               	bcf	3,5	;RP0=0, select bank0
  7950     13CE  1303               	bcf	3,6	;RP1=0, select bank0
  7951     13CF  1387               	bcf	7,7	;volatile
  7952                           
  7953                           ;cont.c: 106:     PORTCbits.RC6 = 0;
  7954     13D0  1307               	bcf	7,6	;volatile
  7955     13D1                     l3778:
  7956                           
  7957                           ;cont.c: 107:     PORTD = 0;
  7958     13D1  0188               	clrf	8	;volatile
  7959                           
  7960                           ;cont.c: 108:     TRISD = 0;
  7961     13D2  1683               	bsf	3,5	;RP0=1, select bank1
  7962     13D3  1303               	bcf	3,6	;RP1=0, select bank1
  7963     13D4  0188               	clrf	8	;volatile
  7964     13D5                     l3780:
  7965                           
  7966                           ;cont.c: 109:     TRISCbits.TRISC7 = 0;
  7967     13D5  1387               	bcf	7,7	;volatile
  7968     13D6                     l3782:
  7969                           
  7970                           ;cont.c: 110:     TRISCbits.TRISC6 = 0;
  7971     13D6  1307               	bcf	7,6	;volatile
  7972     13D7                     l3784:
  7973                           
  7974                           ;cont.c: 111:    _delay((unsigned long)((10)*(20000000/4000.0)));
  7975     13D7  3041               	movlw	65
  7976     13D8  1283               	bcf	3,5	;RP0=0, select bank0
  7977     13D9  1303               	bcf	3,6	;RP1=0, select bank0
  7978     13DA  00A3               	movwf	??_Init_LCD+1
  7979     13DB  30ED               	movlw	237
  7980     13DC  00A2               	movwf	??_Init_LCD
  7981     13DD                     u6317:
  7982     13DD  0BA2               	decfsz	??_Init_LCD,f
  7983     13DE  2BDD               	goto	u6317
  7984     13DF  0BA3               	decfsz	??_Init_LCD+1,f
  7985     13E0  2BDD               	goto	u6317
  7986     13E1  2BE2               	nop2
  7987     13E2                     l3786:
  7988                           
  7989                           ;cont.c: 113:    Lcd_Cmd(0x38);
  7990     13E2  3038               	movlw	56
  7991     13E3  160A  118A  236B  160A  118A  	fcall	_Lcd_Cmd
  7992     13E8                     l3788:
  7993                           
  7994                           ;cont.c: 114:    Lcd_Cmd(0x0F);
  7995     13E8  300F               	movlw	15
  7996     13E9  160A  118A  236B  160A  118A  	fcall	_Lcd_Cmd
  7997     13EE                     l127:
  7998     13EE  0008               	return
  7999     13EF                     __end_of_Init_LCD:
  8000                           
  8001                           	psect	text23
  8002     136B                     __ptext23:	
  8003 ;; *************** function _Lcd_Cmd *****************
  8004 ;; Defined at:
  8005 ;;		line 96 in file "cont.c"
  8006 ;; Parameters:    Size  Location     Type
  8007 ;;  Cmd             1    wreg     unsigned char 
  8008 ;; Auto vars:     Size  Location     Type
  8009 ;;  Cmd             1    1[BANK0 ] unsigned char 
  8010 ;; Return value:  Size  Location     Type
  8011 ;;                  1    wreg      void 
  8012 ;; Registers used:
  8013 ;;		wreg, status,2, status,0, pclath, cstack
  8014 ;; Tracked objects:
  8015 ;;		On entry : 0/0
  8016 ;;		On exit  : 0/0
  8017 ;;		Unchanged: 0/0
  8018 ;; Data sizes:     COMMON   BANK0   BANK1   BANK3   BANK2
  8019 ;;      Params:         0       0       0       0       0
  8020 ;;      Locals:         0       1       0       0       0
  8021 ;;      Temps:          0       0       0       0       0
  8022 ;;      Totals:         0       1       0       0       0
  8023 ;;Total ram usage:        1 bytes
  8024 ;; Hardware stack levels used: 1
  8025 ;; Hardware stack levels required when called: 2
  8026 ;; This function calls:
  8027 ;;		_Lcd_Port
  8028 ;; This function is called by:
  8029 ;;		_Init_LCD
  8030 ;;		_Lecture_temperature_ref
  8031 ;;		_lecture_temperature_mes
  8032 ;;		_main
  8033 ;; This function uses a non-reentrant model
  8034 ;;
  8035                           
  8036     136B                     _Lcd_Cmd:	
  8037                           ;psect for function _Lcd_Cmd
  8038                           
  8039                           
  8040                           ;incstack = 0
  8041                           ; Regs used in _Lcd_Cmd: [wreg+status,2+status,0+pclath+cstack]
  8042                           ;Lcd_Cmd@Cmd stored from wreg
  8043     136B  1283               	bcf	3,5	;RP0=0, select bank0
  8044     136C  1303               	bcf	3,6	;RP1=0, select bank0
  8045     136D  00A1               	movwf	Lcd_Cmd@Cmd
  8046     136E                     l3104:
  8047                           
  8048                           ;cont.c: 96: void Lcd_Cmd(unsigned char Cmd);cont.c: 97: {;cont.c: 98:     PORTCbits.RC6
      +                           = 0;
  8049     136E  1307               	bcf	7,6	;volatile
  8050     136F                     l3106:
  8051                           
  8052                           ;cont.c: 99:     PORTD = Cmd;
  8053     136F  0821               	movf	Lcd_Cmd@Cmd,w
  8054     1370  0088               	movwf	8	;volatile
  8055     1371                     l3108:
  8056                           
  8057                           ;cont.c: 100:     Lcd_Port();
  8058     1371  160A  118A  2377  160A  118A  	fcall	_Lcd_Port
  8059     1376                     l124:
  8060     1376  0008               	return
  8061     1377                     __end_of_Lcd_Cmd:
  8062                           
  8063                           	psect	text24
  8064     1377                     __ptext24:	
  8065 ;; *************** function _Lcd_Port *****************
  8066 ;; Defined at:
  8067 ;;		line 88 in file "cont.c"
  8068 ;; Parameters:    Size  Location     Type
  8069 ;;		None
  8070 ;; Auto vars:     Size  Location     Type
  8071 ;;		None
  8072 ;; Return value:  Size  Location     Type
  8073 ;;                  1    wreg      void 
  8074 ;; Registers used:
  8075 ;;		wreg
  8076 ;; Tracked objects:
  8077 ;;		On entry : 0/0
  8078 ;;		On exit  : 0/0
  8079 ;;		Unchanged: 0/0
  8080 ;; Data sizes:     COMMON   BANK0   BANK1   BANK3   BANK2
  8081 ;;      Params:         0       0       0       0       0
  8082 ;;      Locals:         0       0       0       0       0
  8083 ;;      Temps:          0       1       0       0       0
  8084 ;;      Totals:         0       1       0       0       0
  8085 ;;Total ram usage:        1 bytes
  8086 ;; Hardware stack levels used: 1
  8087 ;; Hardware stack levels required when called: 1
  8088 ;; This function calls:
  8089 ;;		Nothing
  8090 ;; This function is called by:
  8091 ;;		_Lcd_Cmd
  8092 ;;		_Lcd_Write_Char
  8093 ;; This function uses a non-reentrant model
  8094 ;;
  8095                           
  8096     1377                     _Lcd_Port:	
  8097                           ;psect for function _Lcd_Port
  8098                           
  8099     1377                     l3044:	
  8100                           ;incstack = 0
  8101                           ; Regs used in _Lcd_Port: [wreg]
  8102                           
  8103                           
  8104                           ;cont.c: 91:     PORTCbits.RC7 = 1;
  8105     1377  1283               	bcf	3,5	;RP0=0, select bank0
  8106     1378  1303               	bcf	3,6	;RP1=0, select bank0
  8107     1379  1787               	bsf	7,7	;volatile
  8108     137A                     l3046:
  8109                           
  8110                           ;cont.c: 92:     _delay((unsigned long)((200)*(20000000/4000000.0)));
  8111     137A  30C7               	movlw	199
  8112     137B  1283               	bcf	3,5	;RP0=0, select bank0
  8113     137C  1303               	bcf	3,6	;RP1=0, select bank0
  8114     137D  00A0               	movwf	??_Lcd_Port
  8115     137E                     u6327:
  8116     137E  2B7F               	nop2
  8117     137F  0BA0               	decfsz	??_Lcd_Port,f
  8118     1380  2B7E               	goto	u6327
  8119     1381  2B82               	nop2
  8120     1382                     l3048:
  8121                           
  8122                           ;cont.c: 93:     PORTCbits.RC7 = 0;
  8123     1382  1283               	bcf	3,5	;RP0=0, select bank0
  8124     1383  1303               	bcf	3,6	;RP1=0, select bank0
  8125     1384  1387               	bcf	7,7	;volatile
  8126                           
  8127                           ;cont.c: 94:     _delay((unsigned long)((200)*(20000000/4000000.0)));
  8128     1385  30C7               	movlw	199
  8129     1386  1283               	bcf	3,5	;RP0=0, select bank0
  8130     1387  1303               	bcf	3,6	;RP1=0, select bank0
  8131     1388  00A0               	movwf	??_Lcd_Port
  8132     1389                     u6337:
  8133     1389  2B8A               	nop2
  8134     138A  0BA0               	decfsz	??_Lcd_Port,f
  8135     138B  2B89               	goto	u6337
  8136     138C  2B8D               	nop2
  8137     138D                     l121:
  8138     138D  0008               	return
  8139     138E                     __end_of_Lcd_Port:
  8140                           
  8141                           	psect	text25
  8142     1416                     __ptext25:	
  8143 ;; *************** function _external *****************
  8144 ;; Defined at:
  8145 ;;		line 28 in file "cont.c"
  8146 ;; Parameters:    Size  Location     Type
  8147 ;;		None
  8148 ;; Auto vars:     Size  Location     Type
  8149 ;;		None
  8150 ;; Return value:  Size  Location     Type
  8151 ;;                  1    wreg      void 
  8152 ;; Registers used:
  8153 ;;		wreg, btemp+1
  8154 ;; Tracked objects:
  8155 ;;		On entry : 0/0
  8156 ;;		On exit  : 0/0
  8157 ;;		Unchanged: 0/0
  8158 ;; Data sizes:     COMMON   BANK0   BANK1   BANK3   BANK2
  8159 ;;      Params:         0       0       0       0       0
  8160 ;;      Locals:         0       0       0       0       0
  8161 ;;      Temps:          5       0       0       0       0
  8162 ;;      Totals:         5       0       0       0       0
  8163 ;;Total ram usage:        5 bytes
  8164 ;; Hardware stack levels used: 1
  8165 ;; This function calls:
  8166 ;;		Nothing
  8167 ;; This function is called by:
  8168 ;;		Interrupt level 1
  8169 ;; This function uses a non-reentrant model
  8170 ;;
  8171                           
  8172     1416                     _external:	
  8173                           ;psect for function _external
  8174                           
  8175     1416                     i1l2972:
  8176                           
  8177                           ;cont.c: 30:     if (PIR1bits.ADIF ==1)
  8178     1416  1283               	bcf	3,5	;RP0=0, select bank0
  8179     1417  1303               	bcf	3,6	;RP1=0, select bank0
  8180     1418  1F0C               	btfss	12,6	;volatile
  8181     1419  2C1B               	goto	u387_21
  8182     141A  2C1C               	goto	u387_20
  8183     141B                     u387_21:
  8184     141B  2C36               	goto	i1l92
  8185     141C                     u387_20:
  8186     141C                     i1l2974:
  8187                           
  8188                           ;cont.c: 31:     {;cont.c: 32:         adc=(ADRESH<<8);
  8189     141C  081E               	movf	30,w	;volatile
  8190     141D  00F0               	movwf	??_external
  8191     141E  01F1               	clrf	??_external+1
  8192     141F  0870               	movf	??_external,w
  8193     1420  00F1               	movwf	??_external+1
  8194     1421  01F0               	clrf	??_external
  8195     1422  0870               	movf	??_external,w
  8196     1423  00E3               	movwf	_adc
  8197     1424  0871               	movf	??_external+1,w
  8198     1425  00E4               	movwf	_adc+1
  8199     1426                     i1l2976:
  8200                           
  8201                           ;cont.c: 33:         adc=adc+ADRESL;
  8202     1426  1683               	bsf	3,5	;RP0=1, select bank1
  8203     1427  1303               	bcf	3,6	;RP1=0, select bank1
  8204     1428  081E               	movf	30,w	;volatile
  8205     1429  1283               	bcf	3,5	;RP0=0, select bank0
  8206     142A  1303               	bcf	3,6	;RP1=0, select bank0
  8207     142B  0763               	addwf	_adc,w
  8208     142C  00F0               	movwf	??_external
  8209     142D  0864               	movf	_adc+1,w
  8210     142E  1803               	skipnc
  8211     142F  0A64               	incf	_adc+1,w
  8212     1430  00F1               	movwf	??_external+1
  8213     1431  0870               	movf	??_external,w
  8214     1432  00E3               	movwf	_adc
  8215     1433  0871               	movf	??_external+1,w
  8216     1434  00E4               	movwf	_adc+1
  8217     1435                     i1l2978:
  8218                           
  8219                           ;cont.c: 34:         PIR1bits.ADIF =0;
  8220     1435  130C               	bcf	12,6	;volatile
  8221     1436                     i1l92:
  8222     1436  0874               	movf	??_external+4,w
  8223     1437  00FF               	movwf	btemp+1
  8224     1438  0873               	movf	??_external+3,w
  8225     1439  008A               	movwf	10
  8226     143A  0E72               	swapf	??_external+2,w
  8227     143B  0083               	movwf	3
  8228     143C  0EFE               	swapf	btemp,f
  8229     143D  0E7E               	swapf	btemp,w
  8230     143E  0009               	retfie
  8231     143F                     __end_of_external:
  8232     007E                     btemp	set	126	;btemp
  8233     007E                     wtemp0	set	126
  8234                           
  8235                           	psect	intentry
  8236     0004                     __pintentry:	
  8237                           ;incstack = 0
  8238                           ; Regs used in _external: [wreg+btemp+1]
  8239                           
  8240     0004                     interrupt_function:
  8241     007E                     saved_w	set	btemp
  8242     0004  00FE               	movwf	btemp
  8243     0005  0E03               	swapf	3,w
  8244     0006  00F2               	movwf	??_external+2
  8245     0007  080A               	movf	10,w
  8246     0008  00F3               	movwf	??_external+3
  8247     0009  087F               	movf	btemp+1,w
  8248     000A  00F4               	movwf	??_external+4
  8249     000B  160A  118A  2C16   	ljmp	_external
  8250                           
  8251                           	psect	idloc
  8252                           
  8253                           ;Config register IDLOC0 @ 0x2000
  8254                           ;	unspecified, using default values
  8255     2000                     	org	8192
  8256     2000  3FFF               	dw	16383
  8257                           
  8258                           ;Config register IDLOC1 @ 0x2001
  8259                           ;	unspecified, using default values
  8260     2001                     	org	8193
  8261     2001  3FFF               	dw	16383
  8262                           
  8263                           ;Config register IDLOC2 @ 0x2002
  8264                           ;	unspecified, using default values
  8265     2002                     	org	8194
  8266     2002  3FFF               	dw	16383
  8267                           
  8268                           ;Config register IDLOC3 @ 0x2003
  8269                           ;	unspecified, using default values
  8270     2003                     	org	8195
  8271     2003  3FFF               	dw	16383
  8272                           
  8273                           	psect	config
  8274                           
  8275                           ;Config register CONFIG @ 0x2007
  8276                           ;	Oscillator Selection bits
  8277                           ;	FOSC = HS, HS oscillator
  8278                           ;	Watchdog Timer Enable bit
  8279                           ;	WDTE = OFF, WDT disabled
  8280                           ;	Power-up Timer Enable bit
  8281                           ;	PWRTE = 0x1, unprogrammed default
  8282                           ;	Brown-out Reset Enable bit
  8283                           ;	BOREN = 0x1, unprogrammed default
  8284                           ;	Low-Voltage (Single-Supply) In-Circuit Serial Programming Enable bit
  8285                           ;	LVP = 0x1, unprogrammed default
  8286                           ;	Data EEPROM Memory Code Protection bit
  8287                           ;	CPD = 0x1, unprogrammed default
  8288                           ;	Flash Program Memory Write Enable bits
  8289                           ;	WRT = 0x3, unprogrammed default
  8290                           ;	In-Circuit Debugger Mode bit
  8291                           ;	DEBUG = 0x1, unprogrammed default
  8292                           ;	Flash Program Memory Code Protection bit
  8293                           ;	CP = 0x1, unprogrammed default
  8294     2007                     	org	8199
  8295     2007  3FFA               	dw	16378

Data Sizes:
    Strings     53
    Constant    0
    Data        0
    BSS         53
    Persistent  0
    Stack       0

Auto Spaces:
    Space          Size  Autos    Used
    COMMON           14      5       9
    BANK0            80     57      80
    BANK1            80      4      30
    BANK3            96      0       0
    BANK2            96      0       0

Pointer List with Targets:

    Lcd_Write_String@str	PTR const unsigned char  size(1) Largest target is 14
		 -> STR_7(CODE[10]), STR_6(CODE[9]), STR_5(CODE[4]), STR_4(CODE[14]), 
		 -> STR_3(CODE[3]), STR_2(CODE[13]), STR_1(CODE[3]), 


Critical Paths under _main in COMMON

    None.

Critical Paths under _external in COMMON

    None.

Critical Paths under _main in BANK0

    _main->_lecture_temperature_mes
    _lecture_temperature_mes->___flmul
    ___flmul->___xxtofl
    ___awmod->___fltol
    _hysterisis->___flge
    ___flge->___fladd
    _Lecture_temperature_ref->___fltol
    ___xxtofl->___wmul
    ___fltol->___fldiv
    _Lcd_Write_String->_Lcd_Write_Char
    _Lcd_Write_Char->_Lcd_Port
    _Init_LCD->_Lcd_Cmd
    _Lcd_Cmd->_Lcd_Port

Critical Paths under _external in BANK0

    None.

Critical Paths under _main in BANK1

    None.

Critical Paths under _external in BANK1

    None.

Critical Paths under _main in BANK3

    None.

Critical Paths under _external in BANK3

    None.

Critical Paths under _main in BANK2

    None.

Critical Paths under _external in BANK2

    None.

Call Graph Tables:

 ---------------------------------------------------------------------------------
 (Depth) Function   	        Calls       Base Space   Used Autos Params    Refs
 ---------------------------------------------------------------------------------
 (0) _main                                                 8     8      0   23700
                                             53 BANK0      4     4      0
                                              0 BANK1      4     4      0
                           _Init_LCD
                            _Lcd_Cmd
                   _Lcd_Write_String
            _Lecture_temperature_ref
                            ___fltol
                           ___xxtofl
                             _buzzer
                         _hysterisis
            _lecture_temperature_mes
 ---------------------------------------------------------------------------------
 (1) _lecture_temperature_mes                              7     3      4    9457
                                             46 BANK0      7     3      4
                            _Lcd_Cmd
                     _Lcd_Write_Char
                   _Lcd_Write_String
                            ___awmod
                            ___fldiv
                            ___flmul
                            ___fltol
                           ___xxtofl
 ---------------------------------------------------------------------------------
 (2) ___flmul                                             26    18      8    3533
                                             20 BANK0     26    18      8
                          __Umul8_16
                           ___xxtofl (ARG)
 ---------------------------------------------------------------------------------
 (3) __Umul8_16                                            9     7      2     980
                                              0 BANK0      9     7      2
 ---------------------------------------------------------------------------------
 (2) ___fldiv                                             26    18      8    2043
                                              0 BANK0     26    18      8
 ---------------------------------------------------------------------------------
 (2) ___awmod                                              6     2      4     973
                                             36 BANK0      6     2      4
                            ___fltol (ARG)
 ---------------------------------------------------------------------------------
 (1) _hysterisis                                          11     3      8    4552
                                             32 BANK0     11     3      8
                            ___fladd
                             ___flge
                     _turnCoolingOff
                      _turnCoolingOn
                     _turnHeatingOff
                      _turnHeatingOn
 ---------------------------------------------------------------------------------
 (2) _turnHeatingOn                                        0     0      0       0
 ---------------------------------------------------------------------------------
 (2) _turnHeatingOff                                       0     0      0       0
 ---------------------------------------------------------------------------------
 (2) _turnCoolingOn                                        0     0      0       0
 ---------------------------------------------------------------------------------
 (2) _turnCoolingOff                                       0     0      0       0
 ---------------------------------------------------------------------------------
 (2) ___flge                                              12     4      8     626
                                             20 BANK0     12     4      8
                            ___fladd (ARG)
 ---------------------------------------------------------------------------------
 (2) ___fladd                                             20    12      8    3442
                                              0 BANK0     20    12      8
 ---------------------------------------------------------------------------------
 (1) _buzzer                                               4     4      0      68
                                              0 BANK0      4     4      0
 ---------------------------------------------------------------------------------
 (1) _Lecture_temperature_ref                              8     6      2    6681
                                             36 BANK0      8     6      2
                        _EEPROM_Read
                       _EEPROM_Write
                            _Lcd_Cmd
                     _Lcd_Write_Char
                   _Lcd_Write_String
                            ___fltol
                             ___wmul
                           ___xxtofl
 ---------------------------------------------------------------------------------
 (2) ___xxtofl                                            14    10      4     926
                                              6 BANK0     14    10      4
                             ___wmul (ARG)
 ---------------------------------------------------------------------------------
 (2) ___wmul                                               6     2      4     676
                                              0 BANK0      6     2      4
 ---------------------------------------------------------------------------------
 (2) ___fltol                                             10     6      4     877
                                             26 BANK0     10     6      4
                            ___fldiv (ARG)
 ---------------------------------------------------------------------------------
 (2) _Lcd_Write_String                                     3     2      1    1043
                                              2 BANK0      3     2      1
                     _Lcd_Write_Char
 ---------------------------------------------------------------------------------
 (3) _Lcd_Write_Char                                       1     1      0      31
                                              1 BANK0      1     1      0
                           _Lcd_Port
 ---------------------------------------------------------------------------------
 (2) _EEPROM_Write                                         3     0      3    2042
                                              0 BANK0      3     0      3
 ---------------------------------------------------------------------------------
 (2) _EEPROM_Read                                          3     1      2    1055
                                              0 BANK0      3     1      2
 ---------------------------------------------------------------------------------
 (1) _Init_LCD                                             2     2      0      31
                                              2 BANK0      2     2      0
                            _Lcd_Cmd
 ---------------------------------------------------------------------------------
 (2) _Lcd_Cmd                                              1     1      0      31
                                              1 BANK0      1     1      0
                           _Lcd_Port
 ---------------------------------------------------------------------------------
 (4) _Lcd_Port                                             1     1      0       0
                                              0 BANK0      1     1      0
 ---------------------------------------------------------------------------------
 Estimated maximum stack depth 4
 ---------------------------------------------------------------------------------
 (Depth) Function   	        Calls       Base Space   Used Autos Params    Refs
 ---------------------------------------------------------------------------------
 (5) _external                                             5     5      0       0
                                              0 COMMON     5     5      0
 ---------------------------------------------------------------------------------
 Estimated maximum stack depth 5
 ---------------------------------------------------------------------------------

 Call Graph Graphs:

 _main (ROOT)
   _Init_LCD
     _Lcd_Cmd
       _Lcd_Port
   _Lcd_Cmd
   _Lcd_Write_String
     _Lcd_Write_Char
       _Lcd_Port
   _Lecture_temperature_ref
     _EEPROM_Read
     _EEPROM_Write
     _Lcd_Cmd
     _Lcd_Write_Char
     _Lcd_Write_String
     ___fltol
       ___fldiv (ARG)
     ___wmul
     ___xxtofl
       ___wmul (ARG)
   ___fltol
   ___xxtofl
   _buzzer
   _hysterisis
     ___fladd
     ___flge
       ___fladd (ARG)
     _turnCoolingOff
     _turnCoolingOn
     _turnHeatingOff
     _turnHeatingOn
   _lecture_temperature_mes
     _Lcd_Cmd
     _Lcd_Write_Char
     _Lcd_Write_String
     ___awmod
       ___fltol (ARG)
     ___fldiv
     ___flmul
       __Umul8_16
       ___xxtofl (ARG)
     ___fltol
     ___xxtofl

 _external (ROOT)

 Address spaces:
Name               Size   Autos  Total    Cost      Usage
BITCOMMON            E      0       0       0        0.0%
EEDATA             100      0       0       0        0.0%
NULL                 0      0       0       0        0.0%
CODE                 0      0       0       0        0.0%
COMMON               E      5       9       1       64.3%
BITSFR0              0      0       0       1        0.0%
SFR0                 0      0       0       1        0.0%
BITSFR1              0      0       0       2        0.0%
SFR1                 0      0       0       2        0.0%
STACK                0      0       0       2        0.0%
ABS                  0      0      77       3        0.0%
BITBANK0            50      0       0       4        0.0%
BITSFR3              0      0       0       4        0.0%
SFR3                 0      0       0       4        0.0%
BANK0               50     39      50       5      100.0%
BITSFR2              0      0       0       5        0.0%
SFR2                 0      0       0       5        0.0%
BITBANK1            50      0       0       6        0.0%
BANK1               50      4      1E       7       37.5%
BITBANK3            60      0       0       8        0.0%
BANK3               60      0       0       9        0.0%
BITBANK2            60      0       0      10        0.0%
BANK2               60      0       0      11        0.0%
DATA                 0      0      77      12        0.0%


Microchip Technology PIC Macro Assembler V2.41 build 20230208172133 
Symbol Table                                                                                   Sun Apr 30 18:46:18 2023

                              _M 00AE                                _R 00B0                     ___fldiv@aexp 0039  
                   ___fldiv@bexp 0038                                _a 0069                                _b 00B6  
                              _c 00B4                                _e 0067                                _f 0065  
                              _k 006F                                _p 00AC                                pc 0002  
                   ___fldiv@sign 0031                               l95 146C                               l97 149D  
                             fsr 0004              ___wmul@multiplicand 0022              __Umul8_16@word_mpld 0026  
                            l100 07FF                              l103 0805                              l112 13AD  
                            l121 138D                              l130 0811                              l106 1362  
                            l115 13CC                              l124 1376                              l140 002B  
                            l141 009A                              l109 135E                              l118 07FB  
                            l150 016A                              l142 0096                              l127 13EE  
                            l207 16C2                              l136 13AC                              l161 0297  
                            l153 01C0                              l145 0104                              l306 13FD  
                            l170 0365                              l162 0293                              l154 01BC  
                            l146 0100                              l308 1415                              l181 04AA  
                            l173 03D6                              l165 0301                              l157 022D  
                            l149 016E                              l502 1570                              l182 04A6  
                            l174 03D2                              l166 02FD                              l158 0229  
                            l192 05DF                              l177 0440                              l169 0369  
                            l178 043C                              l603 0B41                              l620 0C0A  
                            l612 0CBA                              l605 0B1A                              l701 0F6F  
                            l197 0A62                              l630 0C50                              l624 0C2E  
                            l480 158F                              l472 14F8                              l642 0CBA  
                            l714 1455                              l483 15FB                              l492 1570  
                            l484 1614                              l716 1467                              l741 08CB  
                            l671 0728                              l655 0636                              l752 0895  
                            l753 08A1                              l657 07AE                              l499 155B  
                            l739 0836                              l677 079A                              l599 0ABE  
                            l695 0FFF                              _adc 0063                              _tab 0059  
                            fsr0 0004                              indf 0000                     ___awmod@sign 0049  
                   ___flmul@aexp 0042                     ___flmul@bexp 0047         ?_lecture_temperature_mes 004E  
                   ___flmul@sign 0041                     ___flmul@temp 004C                     ___flmul@prod 0048  
                   ___fltol@exp1 0043                             l3100 07F3                             l3110 1391  
                           l3104 136E                             l3112 1393                             l3200 1521  
                           l3120 13F3                             l4000 0532                             l3106 136F  
                           l3050 0809                             l3114 13A0                             l3202 1529  
                           l3122 13F7                             l4010 05BC                             l4002 053D  
                           l3044 1377                             l3108 1371                             l3052 080A  
                           l3116 13A6                             l3212 1537                             l3204 152B  
                           l3124 1404                             l4004 0548                             l3300 0AE4  
                           l3140 14AC                             l3132 149E                             l3060 144B  
                           l4020 08D1                             l4100 16F1                             l3046 137A  
                           l3054 080C                             l3222 1550                             l3214 1540  
                           l3206 152F                             l3126 140B                             l3118 13EF  
                           l4006 0557                             l3310 0B02                             l3302 0AE6  
                           l3230 0A68                             l3070 07FC                             l3150 14C5  
                           l3142 14B0                             l3134 14A1                             l3062 144F  
                           l4030 097C                             l4022 090F                             l4102 1707  
                           l3048 1382                             l3080 13B3                             l3224 1560  
                           l3216 1549                             l3128 1411                             l4008 05B2  
                           l3400 0C68                             l3320 0B2C                             l3312 0B1E  
                           l3304 0AE8                             l3240 0A7B                             l3232 0A6C  
                           l3072 0802                             l3160 14E4                             l3152 14C9  
                           l3144 14B5                             l3136 14A5                             l3064 145E  
                           l3056 1442                             l4040 0A0C                             l4032 099E  
                           l4024 0940                             l4120 17F8                             l4112 1791  
                           l4104 173B                             l3090 13C9                             l3082 13BF  
                           l3226 1565                             l3410 0C98                             l3402 0C6C  
                           l3322 0B35                             l3314 0B25                             l3306 0AEA  
                           l3250 0A91                             l3242 0A83                             l3234 0A70  
                           l3170 1571                             l3074 135F                             l3154 14CD  
                           l3146 14BB                             l3162 14EA                             l3138 14AA  
                           l3066 1463                             l3058 1444                             l4042 0A24  
                           l4034 09CE                             l4026 0946                             l4018 08CC  
                           l4114 17BB                             l4106 1741                             l3092 13CA  
                           l3084 13C2                             l3420 0CAC                             l3412 0CA0  
                           l3404 0C8A                             l3340 0B79                             l3332 0B53  
                           l3316 0B27                             l3324 0B39                             l3308 0AEB  
                           l3260 0AA1                             l3252 0A97                             l3244 0A84  
                           l3236 0A71                             l3228 0A63                             l3180 15D3  
                           l3172 1587                             l3076 135B                             l4060 164D  
                           l3164 14EF                             l3156 14D7                             l3148 14BE  
                           l3500 06AD                             l4052 0A58                             l4044 0A2E  
                           l4036 09EB                             l4028 0950                             l4116 17C3  
                           l4108 1750                             l3094 13CB                             l3086 13C3  
                           l3078 13AD                             l3190 14F9                             l4142 051B  
                           l3422 0CB0                             l3414 0CA5                             l3406 0C8E  
                           l3342 0B7B                             l3334 0B6A                             l3326 0B45  
                           l3350 0B8E                             l3318 0B2B                             l3262 0AA6  
                           l3270 0AB6                             l3254 0A98                             l3238 0A76  
                           l3246 0A86                             l3182 15D7                             l3174 15A3  
                           l4070 1696                             l4062 1652                             l3166 14F4  
                           l3158 14DD                             l3502 06B6                             l3510 06DB  
                           l3430 05E5                             l4046 0A3D                             l4038 0A04  
                           l4118 17D3                             l3096 07EA                             l3088 13C8  
                           l3192 1504                             l3424 0CB5                             l3416 0CA6  
                           l3408 0C93                             l3360 0BED                             l3352 0BA4  
                           l3344 0B7F                             l3336 0B6E                             l3328 0B4A  
                           l3280 0AD0                             l3272 0AC4                             l3264 0AAB  
                           l3256 0A9C                             l3248 0A8E                             l3184 1611  
                           l3176 15AB                             l4080 16B4                             l4072 169C  
                           l4064 1684                             l4056 1615                             l3520 06F8  
                           l3512 06E1                             l3504 06C8                             l3440 05F8  
                           l3432 05E9                             l3600 0CF3                             l4048 0A4D  
                           l3098 07F0                             l3426 0CB9                             l3418 0CAA  
                           l3370 0C20                             l3354 0BE2                             l3362 0BFC  
                           l3346 0B80                             l3338 0B72                             l3290 0ADA  
                           l3282 0AD2                             l3274 0AC8                             l3266 0AB3  
                           l3258 0AA0                             l3186 1613                             l3178 15AF  
                           l4074 16A1                             l4066 1688                             l4058 1647  
                           l3530 070D                             l3522 06F9                             l3514 06E9  
                           l3506 06C9                             l3450 0610                             l3442 0600  
                           l3434 05ED                             l3610 0D0F                             l3602 0CF8  
                           l4090 16DA                             l4082 16C3                             l3196 150D  
                           l3380 0C37                             l3372 0C29                             l3364 0C12  
                           l3356 0BE6                             l3348 0B89                             l3292 0ADC  
                           l3284 0AD4                             l3276 0ACC                             l3268 0AB4  
                           l4076 16A9                             l4068 168E                             l3540 0732  
                           l3532 0711                             l3524 0702                             l3516 06EB  
                           l3508 06D7                             l3460 0623                             l3452 0614  
                           l3444 0601                             l3436 05EE                             l3428 05E0  
                           l3700 0FDB                             l3620 0D30                             l3612 0D14  
                           l3604 0CFD                             l4092 16DE                             l4084 16C8  
                           l3198 1520                             l3390 0C47                             l3382 0C3C  
                           l3374 0C2D                             l3366 0C17                             l3358 0BE8  
                           l3294 0ADE                             l3286 0AD6                             l3278 0ACE  
                           l4078 16AF                             l3550 0770                             l3542 0740  
                           l3534 0725                             l3518 06F4                             l3526 0708  
                           l3470 064A                             l3462 062B                             l3454 0618  
                           l3438 05F3                             l3446 0603                             l3702 0FDD  
                           l3710 0FF3                             l3630 0DBA                             l3622 0D3D  
                           l3614 0D19                             l3606 0D05                             l4094 16DF  
                           l4086 16D2                             l3720 081E                             l3800 0063  
                           l3392 0C4D                             l3376 0C32                             l3384 0C3E  
                           l3296 0AE0                             l3288 0AD8                             l3560 079E  
                           l3552 077E                             l3544 0744                             l3528 070C  
                           l3472 064E                             l3464 062C                             l3456 0619  
                           l3448 060B                             l3712 0FF7                             l3704 0FE9  
                           l3640 0E18                             l3632 0DD6                             l3624 0D58  
                           l3608 0D07                             l4096 16E2                             l4088 16D6  
                           l3730 084A                             l3722 082E                             l3810 009E  
                           l3802 006B                             l3378 0C35                             l3386 0C42  
                           l3298 0AE2                             l3562 07A2                             l3554 078D  
                           l3546 075D                             l3538 072D                             l3490 068F  
                           l3482 0665                             l3458 061E                             l3466 062E  
                           l3706 0FED                             l3650 0EA2                             l3642 0E35  
                           l3634 0DDF                             l3626 0D74                             l3618 0D22  
                           l4098 16E7                             l3740 0870                             l3732 084E  
                           l3724 083E                             l3716 0815                             l3900 02B1  
                           l3820 00D5                             l3812 00A9                             l3804 0076  
                           l3396 0C55                             l3388 0C43                             l3564 07A4  
                           l3556 0791                             l3548 0763                             l3492 0691  
                           l3484 0677                             l3468 063E                             l3476 0657  
                           l3708 0FEE                             l3660 0F32                             l3652 0ECD  
                           l3644 0E4C                             l3636 0DED                             l3628 0D9E  
                           l3580 0CC8                             l3750 0899                             l3742 0879  
                           l3734 0857                             l3718 081A                             l3910 02EA  
                           l3902 02BF                             l3830 0113                             l3822 00E0  
                           l3814 00B4                             l3806 0083                             l3398 0C5A  
                           l3566 07A8                             l3558 0799                             l3494 0696  
                           l3486 067F                             l3478 065C                             l3662 0F3B  
                           l3670 0F4F                             l3654 0EF3                             l3646 0E69  
                           l3638 0E0A                             l3590 0CDD                             l3582 0CC9  
                           l3574 0CBB                             l3760 08C3                             l3752 08A3  
                           l3744 0880                             l3736 085E                             l3728 0847  
                           l3920 0329                             l3912 02F5                             l3904 02CA  
                           l3840 014A                             l3832 011E                             l3824 00ED  
                           l3816 00C2                             l3808 008E                             l3496 06A8  
                           l3488 0687                             l3672 0F53                             l3664 0F3F  
                           l3656 0F1B                             l3648 0E94                             l3592 0CE5  
                           l3584 0CCE                             l3576 0CC0                             l3754 08B9  
                           l3746 088B                             l3738 0862                             l3930 035D  
                           l3922 0334                             l3914 0305                             l3906 02D2  
                           l3850 0188                             l3842 0157                             l3834 012C  
                           l3826 00F8                             l3818 00CD                             l3770 146F  
                           l3498 06AC                             l3690 0FA4                             l3682 0F74  
                           l3674 0F54                             l3666 0F40                             l3658 0F24  
                           l3594 0CEA                             l3586 0CD3                             l3578 0CC4  
                           l3780 13D5                             l3756 08BE                             l3748 088F  
                           l3940 039F                             l3932 0370                             l3924 033C  
                           l3916 0310                             l3908 02DD                             l3860 01C7  
                           l3852 0196                             l3844 0162                             l3836 0137  
                           l3828 0108                             l3772 147A                             l3764 1468  
                           l3684 0F79                             l3692 0FAA                             l3676 0F58  
                           l3668 0F49                             l3596 0CEE                             l3588 0CDB  
                           l3782 13D6                             l3758 08C2                             l3950 03DA  
                           l3942 03A7                             l3934 037B                             l3926 0347  
                           l3918 031B                             l3870 01FE                             l3862 01D2  
                           l3854 01A1                             l3846 0172                             l3838 013F  
                           l3790 002A                             l3774 1490                             l3694 0FB7  
                           l3686 0F87                             l3678 0F6C                             l3598 0CF2  
                           l3784 13D7                             l3776 13CD                             l3960 0411  
                           l3952 03E5                             l3944 03B2                             l3936 0386  
                           l3928 0352                             l3880 023C                             l3872 0209  
                           l3864 01DD                             l3856 01A9                             l3848 017D  
                           l3792 0034                             l3696 0FC2                             l3688 0F8B  
                           l3786 13E2                             l3778 13D1                             l3970 044F  
                           l3962 041C                             l3954 03F0                             l3946 03BF  
                           l3938 0394                             l3890 0273                             l3882 0247  
                           l3874 0216                             l3866 01EB                             l3858 01B4  
                           l3794 003F                             l3698 0FD1                             l3788 13E8  
                           l3980 0486                             l3972 045A                             l3964 0429  
                           l3956 03FE                             l3948 03CA                             l3892 0280  
                           l3884 0255                             l3876 0221                             l3868 01F6  
                           l3796 004A                             l3990 04D7                             l3982 0493  
                           l3974 0468                             l3966 0434                             l3958 0409  
                           l3894 028B                             l3886 0260                             l3878 0231  
                           l3798 0058                             l3984 049E                             l3976 0473  
                           l3968 0444                             l3896 029B                             l3888 0268  
                           l3994 0516                             l3978 047B                             l3898 02A6  
                           l3996 0523                             l3988 04AF                             l3998 052C  
                           STR_1 07E7                             STR_2 07C3                             STR_3 07E7  
                           STR_4 07B5                             STR_5 07E3                             STR_6 07DA  
                           STR_7 07D0                             u4000 14B0                             u4001 14AF  
                           u4010 14BB                             u4011 14BA                             u4100 15AF  
                           u4101 15AE                             u4030 14CD                             u4111 15BE  
                           u4031 14CC                             u4200 1548                             u4120 15D7  
                           u4112 15BF                             u4040 14D7                             u5000 0CC8  
                           u4201 1547                             u4121 15D6                             u4113 15C4  
                           u4041 14D6                             u4025 14BF                             u5001 0CC7  
                           u4210 154F                             u4114 15C5                             u5010 0CCE  
                           u4211 154E                             u4131 15E6                             u4115 15CA  
                           u5011 0CCD                             u4300 0AA6                             u4140 1611  
                           u4132 15E7                             u4116 15CB                             u4060 14EA  
                           u5020 0CD3                             u4301 0AA5                             u4141 1610  
                           u4133 15EC                             u4061 14E9                             u4045 14D3  
                           u5101 0DAC                             u5021 0CD2                             u4230 1560  
                           u4150 1504                             u4310 0AAB                             u4134 15ED  
                           u4070 14EF                             u5102 0DB3                             u5030 0CF2  
                           u4231 155F                             u4151 1503                             u4311 0AAA  
                           u4135 15F2                             u4071 14EE                             u4055 14DE  
                           u5111 0DC8                             u5103 0DBA                             u5031 0CF1  
                           u4240 1565                             u4160 151B                             u4400 0B41  
                           u4320 0AC4                             u4136 15F3                             u4080 1587  
                           u5112 0DCF                             u5040 0CF8                             u4241 1564  
                           u4225 1552                             u4401 0B40                             u4321 0AC3  
                           u4145 160D                             u4081 1586                             u5201 0EE5  
                           u5113 0DD6                             u5041 0CF7                             u4170 152F  
                           u4410 0B45                             u4330 0AC8                             u4250 0A70  
                           u4090 15A3                             u5210 0F01                             u5202 0EEC  
                           u5050 0CFD                             u4171 152E                             u4411 0B44  
                           u4331 0AC7                             u4251 0A6F                             u4091 15A2  
                           u5203 0EF3                             u5131 0DFC                             u5051 0CFC  
                           u4180 1536                             u4500 0BCF                             u4420 0B4A  
                           u4340 0B02                             u4260 0A76                             u5300 0F73  
                           u5132 0E03                             u5060 0D14                             u4181 1535  
                           u4165 1516                             u4501 0BD0                             u4421 0B49  
                           u4341 0B01                             u4261 0A75                             u5301 0F72  
                           u5221 0F0D                             u5141 0E27                             u5133 0E0A  
                           u5125 0DD8                             u5061 0D13                             u4510 0BED  
                           u4502 0BD5                             u4350 0B0D                             u4270 0A7B  
                           u5310 0F79                             u5222 0F14                             u5142 0E2E  
                           u5070 0D19                             u6007 019C                             u4511 0BEC  
                           u4503 0BD6                             u4431 0B5C                             u4351 0B0B  
                           u4271 0A7A                             u5311 0F78                             u5223 0F1B  
                           u5215 0EFC                             u5143 0E35                             u5071 0D18  
                           u4600 0C4D                             u4520 0C12                             u4440 0B6E  
                           u4432 0B63                             u4360 0B0E                             u4280 0A97  
                           u5320 0F8B                             u6017 01AF                             u4601 0C4C  
                           u4521 0C11                             u4441 0B6D                             u4433 0B6A  
                           u4345 0AFE                             u4281 0A96                             u5321 0F8A  
                           u5161 0E5B                             u5081 0D66                             u5410 085D  
                           u4610 0C54                             u4530 0C17                             u4450 0B72  
                           u4370 0B1E                             u4290 0AA0                             u5330 0F9A  
                           u5250 0F3F                             u5162 0E62                             u5082 0D6D  
                           u4195 1538                             u5411 085C                             u6107 02AC  
                           u6027 01D8                             u4611 0C53                             u4531 0C16  
                           u4451 0B71                             u4371 0B1D                             u4291 0A9F  
                           u5251 0F3E                             u5235 0F1D                             u5171 0E86  
                           u5163 0E69                             u5155 0E37                             u5091 0D82  
                           u5083 0D74                             u5500 08C2                             u4700 0CB9  
                           u4620 0C5A                             u4460 0B7F                             u4380 0B2B  
                           u3900 144F                             u5340 0FB7                             u5172 0E8D  
                           u5092 0D89                             u5501 08C1                             u5405 084F  
                           u6117 02C5                             u6037 01F1                             u4701 0CB8  
                           u4621 0C59                             u4461 0B7E                             u4381 0B2A  
                           u3901 144E                             u5341 0FB6                             u5245 0F34  
                           u5181 0EB1                             u5173 0E94                             u5093 0D90  
                           u5430 087F                             u5510 149D                             u4630 0C6C  
                           u4550 0C2D                             u4710 05ED                             u5350 0FD1  
                           u5270 0F53                             u5190 0ED9                             u5182 0EB8  
                           u5431 087E                             u6207 03AD                             u6127 02D8  
                           u6047 0204                             u5511 149C                             u4631 0C6B  
                           u4551 0C2C                             u4711 05EC                             u5351 0FD0  
                           u5335 0F95                             u5271 0F52                             u5183 0EBF  
                           u5600 01C7                             u5520 0034                             u4640 0C7B  
                           u4560 0C32                             u4480 0BA4                             u4720 05F3  
                           u3920 1463                             u5360 0FED                             u5280 0F58  
                           u5425 0871                             u6217 03C5                             u6137 02F0  
                           u6057 021C                             u5601 01C6                             u5521 0033  
                           u4561 0C31                             u4545 0C22                             u4481 0BA3  
                           u4721 05F2                             u3921 1462                             u5361 0FEC  
                           u5345 0FB3                             u5281 0F57                             u5265 0F42  
                           u3930 13B3                             u5450 088F                             u5370 081A  
                           u5610 022D                             u5530 009A                             u4650 0C8A  
                           u4570 0C3C                             u4730 05F8                             u5290 0F6C  
                           u3931 13B2                             u5451 088E                             u5371 0819  
                           u6307 0538                             u6227 03EB                             u6147 0316  
                           u6067 0242                             u5611 022C                             u5531 0099  
                           u5515 1499                             u4651 0C89                             u4571 0C3B  
                           u4491 0BBB                             u4483 0BA0                             u4475 0B82  
                           u4395 0B2E                             u4731 05F7                             u3915 1456  
                           u5355 0FCD                             u5291 0F6B                             u5195 0ED4  
                           u3940 13AC                             u5460 0895                             u5380 081E  
                           u5700 03DA                             u5620 0231                             u5540 009E  
                           u4660 0C93                             u4580 0C42                             u4492 0BBC  
                           u4900 070C                             u4820 06AC                             u4740 0618  
                           u6317 13DD                             u3941 13AB                             u5461 0894  
                           u5445 0884                             u5381 081D                             u6237 0404  
                           u5701 03D9                             u6157 032F                             u6077 025B  
                           u5621 0230                             u5541 009D                             u4661 0C92  
                           u4645 0C76                             u4581 0C41                             u4493 0BC1  
                           u4901 070B                             u4821 06AB                             u4805 0698  
                           u4741 0617                             u3950 13F7                             u5470 0899  
                           u5390 083E                             u5710 0440                             u5630 0297  
                           u5550 0104                             u4670 0C98                             u4590 0C47  
                           u4494 0BC2                             u4910 0711                             u4750 061E  
                           u6327 137E                             u3951 13F6                             u5471 0898  
                           u5391 083D                             u5711 043F                             u6247 0417  
                           u6167 0342                             u5631 0296                             u6087 026E  
                           u5551 0103                             u4671 0C97                             u4591 0C46  
                           u4495 0BC7                             u4911 0710                             u4815 06A1  
                           u4751 061D                             u5480 08AE                             u5720 0444  
                           u5640 029B                             u5560 0108                             u4680 0CA5  
                           u4496 0BC8                             u5800 16A9                             u4920 0725  
                           u4840 06C8                             u4760 0623                             u6337 1389  
                           u5721 0443                             u6257 042F                             u6177 0358  
                           u5641 029A                             u6097 0286                             u5561 0107  
                           u4681 0CA4                             u5801 16A8                             u4921 0724  
                           u4841 06C7                             u4761 0622                             u5490 08BE  
                           u5730 04AA                             u5650 0301                             u5570 016E  
                           u4690 0CAA                             u4930 072C                             u4850 06E1  
                           u4770 063E                             u5810 1790                             u5491 08BD  
                           u5731 04A9                             u6267 0455                             u6187 0381  
                           u5651 0300                             u5571 016D                             u4691 0CA9  
                           u4931 072B                             u4851 06E0                             u4835 06AF  
                           u4771 063D                             u5811 178F                             i1l92 1436  
                           u3980 1411                             u5740 04AE                             u5660 0305  
                           u5580 0172                             u4940 0732                             u4860 06E9  
                           u4780 065C                             u5820 17D2                             u3981 1410  
                           u3965 13FE                             u5485 08A9                             u5741 04AD  
                           u6277 046E                             u6197 039A                             u5661 0304  
                           u5581 0171                             u4941 0731                             u4861 06E8  
                           u4845 06C4                             u4781 065B                             u5821 17D1  
                           u5750 0557                             u5670 0369                             u5590 01C0  
                           u3990 14A5                             u4950 0744                             u4790 0696  
                           u3975 1405                             u5751 0556                             u6287 0481  
                           u5671 0368                             u5591 01BF                             u3991 14A4  
                           u4951 0743                             u4791 0695                             u5815 178C  
                           u5680 0370                             u4960 0753                             u4880 06F8  
                           u5760 0A0C                             u6297 0499                             u5681 036F  
                           u4881 06F7                             u5761 0A0B                             u5825 17CE  
                           u5690 03D6                             u5770 1647                             u4970 0770  
                           u5755 0553                             u5691 03D5                             u5907 0089  
                           u5771 1646                             u4971 076F                             u4875 06ED  
                           u5780 1684                             u4980 078D                             u5917 00AF  
                           u5781 1683                             u4981 078C                             u4965 074E  
                           u5837 0A36                             u5790 1696                             u4990 07A2  
                           u5927 00C8                             u5847 16BC                             u5791 1695  
                           u4991 07A1                             u4975 076C                             u4895 06FB  
                           u5937 00DB                             u5857 1475                             u4985 0789  
                           u5947 00F3                             u5867 1483                             u5957 0119  
                           u5877 0045                             u5967 0132                             u5887 005E  
                           u5977 0145                             u5897 0071                             u5987 015D  
                           u5997 0183              Lcd_Write_String@num 0022              Lcd_Write_String@str 0024  
                           _adc1 00A8                             _addr 00B2                ?_Lcd_Write_String 0022  
                           _main 16C3                             btemp 007E                             start 000E  
             ??_Lcd_Write_String 0075                  ___fldiv@new_exp 0032                  __end_of_Lcd_Cmd 1377  
           __end_of_EEPROM_Write 13CD                    ___fltol@sign1 0042                  __end_of___fladd 0CBB  
                          ?_main 0070                  __end_of___fldiv 07AF                            _EEADR 010D  
                __end_of___awmod 14F9                  __end_of___flmul 1000                  __end_of___fltol 1571  
                          _PORTC 0007                            _PORTD 0008                            _PORTE 0009  
                          _TRISB 0086                            _TRISC 0087                            _TRISD 0088  
                          _TRISE 0089                            pclath 000A                            status 0003  
                          wtemp0 007E                 EEPROM_Write@Data 0022                 __end_of_Lcd_Port 138E  
                __initialization 0011                     __end_of_main 1800                 __end_of_Init_LCD 13EF  
                         ??_main 0055                           _ADCON0 001F                           _ADCON1 009F  
                         _ADRESH 001E                           _ADRESL 009E                           _EEDATA 010C  
                         _EECON2 018D                           i1l2972 1416                           i1l2974 141C  
                         i1l2976 1426                           i1l2978 1435                           u387_20 141C  
                         u387_21 141B                        ??_Lcd_Cmd 0075                 __end_of___xxtofl 08CC  
                         ___flge 1571                        ??___fladd 0028                           ___wmul 13EF  
                      ??___fldiv 0028                        ??___awmod 0075                        ??___flmul 003C  
                      ??___fltol 003E                           _buzzer 1468                  ___awmod@divisor 0044  
                ___awmod@counter 0048                 __end_of_external 143F                           saved_w 007E  
                     ___flge@ff1 0034                       ___flge@ff2 0038                     ___xxtofl@arg 0030  
                   ___xxtofl@exp 002F                     ___xxtofl@val 0026          __end_of__initialization 0026  
                     ___fltol@f1 003A                   __pcstackCOMMON 0070                    _turnHeatingOn 07FC  
                  _turnCoolingOn 135F         ?_Lecture_temperature_ref 0044                        ?_Lcd_Port 0070  
                   _EEPROM_Write 13AD                       __pbssBANK0 0059                       __pbssBANK1 00A0  
                      ?_Init_LCD 0070                __end_of__Umul8_16 1468                       __pmaintext 16C3  
                        ?___flge 0034                          ?___wmul 0020                   ?_turnHeatingOn 0070  
                     __pintentry 0004                          ?_buzzer 0070                   ?_turnCoolingOn 0070  
                      ?___xxtofl 0026               _temperature_mesure 0075                       ??_Lcd_Port 0020  
                     __stringtab 07AF                          _Address 006B                       ??_Init_LCD 0022  
                 _Lcd_Write_Char 0806                          _Lcd_Cmd 136B                        ?_external 0070  
                        ___fladd 0A63                          ___fldiv 05E0                          ___awmod 149E  
                        ___flmul 0CBB                          ___fltol 14F9                          __ptext1 08CC  
                        __ptext2 0CBB                          __ptext3 143F                          __ptext4 05E0  
                        __ptext5 149E                          __ptext6 1615                          __ptext7 07FC  
                        __ptext8 0802                          __ptext9 135F                          _heating 006D  
                        _cooling 00B8  __end_of_Lecture_temperature_ref 05E0                       ??___xxtofl 002A  
               ___awmod@dividend 0046                          clrloop0 1364           __end_of_Lcd_Write_Char 0812  
           end_of_initialization 0026                    ??_EEPROM_Read 0075                          buzzer@p 0022  
                     ??_external 0070                  ??_turnHeatingOn 0075                  ??_turnCoolingOn 0075  
                     _hysterisis 1615                      hysterisis@M 0044                      hysterisis@R 0040  
                      _PORTBbits 0006                        _PORTCbits 0007                        _PORTEbits 0009  
                    ___fladd@grs 0033                    ___xxtofl@sign 002E                        _TRISCbits 0087  
                    ___fldiv@grs 0034                      ___fldiv@rem 002D                  ?_Lcd_Write_Char 0070  
              Lcd_Write_String@i 0023                      ___flmul@grs 0043          _lecture_temperature_mes 08CC  
            __end_of_EEPROM_Read 07FC                   __end_of___flge 1615                   __end_of___wmul 1416  
               _Lcd_Write_String 138E                   __end_of_buzzer 149E                   _turnHeatingOff 0802  
            start_initialization 0011                   _turnCoolingOff 135B                 _temperature_reff 00A4  
                       ??___flge 003C                         ??___wmul 0075                        __Umul8_16 143F  
                    ?_hysterisis 0040                         ??_buzzer 0020           __end_of_turnHeatingOff 0806  
                      ___fladd@a 0024                        ___fladd@b 0020                        ___fldiv@a 0020  
                      ___fldiv@b 0024                        ___flmul@a 0038                        ___flmul@b 0034  
                    __pbssCOMMON 0075                        ___latbits 0002                    __pcstackBANK0 0020  
                  __pcstackBANK1 00BA           __end_of_turnCoolingOff 135F        ??_lecture_temperature_mes 0052  
                       ?_Lcd_Cmd 0070                      _EEPROM_Read 07EA                         ?___fladd 0020  
                       ?___fldiv 0020                         ?___awmod 0044                         ?___flmul 0034  
                       ?___fltol 003A                       ?__Umul8_16 0020                  ?_turnHeatingOff 0070  
                      __pstrings 07AF                  ?_turnCoolingOff 0070                interrupt_function 0004  
                 ___wmul@product 0024                        clear_ram0 1363                         _PIE1bits 008C  
                       _PIR1bits 000C  __end_of_lecture_temperature_mes 0A63                      __stringbase 07B4  
              ___wmul@multiplier 0020                 ??_Lcd_Write_Char 0075                         _Lcd_Port 1377  
                       _Init_LCD 13CD         __end_of_Lcd_Write_String 13AD                       _EECON1bits 018C  
        _Lecture_temperature_ref 002A            __end_of_turnHeatingOn 0800                      ??__Umul8_16 0022  
             __end_of__stringtab 07B5            __end_of_turnCoolingOn 1363                         ___xxtofl 0812  
                       _main$941 00BA                         __ptext10 135B                         __ptext11 1571  
                       __ptext20 13AD                         __ptext12 0A63                         __ptext21 07EA  
                       __ptext13 1468                         __ptext22 13CD                         __ptext14 002A  
                       __ptext23 136B                         __ptext15 0812                         __ptext24 1377  
                       __ptext16 13EF                         __ptext25 1416                         __ptext17 14F9  
                       __ptext18 138E                         __ptext19 0806                    ?_EEPROM_Write 0020  
                       _external 1416                     ??_hysterisis 0048                       _INTCONbits 000B  
          _temperature_reference 00A0               EEPROM_Read@Address 0020               Lcd_Write_Char@Data 0021  
                 ??_EEPROM_Write 0075                         intlevel1 0000        ??_Lecture_temperature_ref 0046  
                   ?_EEPROM_Read 0020               __end_of_hysterisis 16C3                       Lcd_Cmd@Cmd 0021  
                      stringcode 07AF                 ??_turnHeatingOff 0075           __Umul8_16@multiplicand 0020  
                    _temperature 005F                 ??_turnCoolingOff 0075              EEPROM_Write@Address 0020  
                       stringdir 07AF                         stringtab 07AF                    ___fladd@signs 0030  
                   ___fladd@aexp 0031                     ___fladd@bexp 0032                  EEPROM_Read@Data 0022  
           __Umul8_16@multiplier 0028                __Umul8_16@product 0024  
